(dp1
I1575440
S'Fair'
p2
sI1746459
S'Excellent'
p3
sI99357
S'Fair'
p4
sI1201072
S'Fair'
p5
sI99365
S'Fair'
p6
sI1371825
S'Excellent'
p7
sI1206876
S'Poor'
p8
sI1646128
S'Good'
p9
sI1641016
S'Good'
p10
sI1141305
S'Poor'
p11
sI1161789
S'Excellent'
p12
sI99391
S'Good'
p13
sI1176643
S'Poor'
p14
sI1383001
S'Good'
p15
sI1390172
S'Good'
p16
sI1158753
S'Good'
p17
sI1048678
S'Fair'
p18
sI1158763
S'Good'
p19
sI1007724
S'Good'
p20
sI99443
S'Fair'
p21
sI1572980
S'Excellent'
p22
sI99774
S'Fair'
p23
sI1234559
S'Fair'
p24
sI121985
S'Excellent'
p25
sI121987
S'Good'
p26
sI121991
S'Good'
p27
sI1237128
S'Good'
p28
sI1485961
S'Good'
p29
sI121996
S'Good'
p30
sI121998
S'Good'
p31
sI1477775
S'Good'
p32
sI113298
S'Good'
p33
sI113300
S'Good'
p34
sI122007
S'Poor'
p35
sI122011
S'Poor'
p36
sI113309
S'Excellent'
p37
sI122014
S'Good'
p38
sI113311
S'Good'
p39
sI1218720
S'Fair'
p40
sI122020
S'Excellent'
p41
sI113317
S'Excellent'
p42
sI122022
S'Poor'
p43
sI1465008
S'Fair'
p44
sI113329
S'Good'
p45
sI113343
S'Fair'
p46
sI1146072
S'Excellent'
p47
sI1217245
S'Fair'
p48
sI1448670
S'Fair'
p49
sI1601249
S'Good'
p50
sI1218792
S'Good'
p51
sI1308397
S'Good'
p52
sI1503474
S'Excellent'
p53
sI1025779
S'Good'
p54
sI1563892
S'Fair'
p55
sI1500405
S'Good'
p56
sI1177864
S'Good'
p57
sI1147661
S'Fair'
p58
sI1186070
S'Excellent'
p59
sI1547031
S'Poor'
p60
sI1456411
S'Good'
p61
sI1456416
S'Good'
p62
sI142114
S'Poor'
p63
sI1485603
S'Good'
p64
sI126257
S'Fair'
p65
sI126260
S'Good'
p66
sI1060157
S'Good'
p67
sI1128769
S'Fair'
p68
sI1164614
S'Poor'
p69
sI1465162
S'Good'
p70
sI1157456
S'Good'
p71
sI1486164
S'Good'
p72
sI1464151
S'Good'
p73
sI125274
S'Fair'
p74
sI1217376
S'Fair'
p75
sI1164645
S'Fair'
p76
sI1214829
S'Fair'
p77
sI1027901
S'Good'
p78
sI122004
S'Excellent'
p79
sI1553789
S'Good'
p80
sI157057
S'Good'
p81
sI1583937
S'Good'
p82
sI1175436
S'Fair'
p83
sI1235341
S'Good'
p84
sI112019
S'Fair'
p85
sI112021
S'Good'
p86
sI1595302
S'Good'
p87
sI112039
S'Good'
p88
sI112041
S'Fair'
p89
sI1199530
S'Poor'
p90
sI1155229
S'Poor'
p91
sI1456560
S'Good'
p92
sI112052
S'Good'
p93
sI112053
S'Good'
p94
sI93625
S'Fair'
p95
sI122015
S'Fair'
p96
sI112062
S'Fair'
p97
sI1462005
S'Good'
p98
sI112064
S'Good'
p99
sI112066
S'Fair'
p100
sI1415127
S'Excellent'
p101
sI1028569
S'Good'
p102
sI1149402
S'Good'
p103
sI1149404
S'Good'
p104
sI1207461
S'Fair'
p105
sI1379306
S'Good'
p106
s.