(lp1
I1175436
aI1147661
aI1575440
aI112019
aI99357
aI122015
aI1218720
aI1201072
aI1207461
aI112041
aI1465008
aI126257
aI93625
aI112062
aI113343
aI1128769
aI112066
aI125274
aI1217245
aI1448670
aI99365
aI1217376
aI1164645
aI1048678
aI1214829
aI99443
aI1563892
aI99774
aI1234559
a.