(lp1
I157057
aI121987
aI121991
aI1177864
aI1485961
aI121996
aI1235341
aI121998
aI1477775
aI113298
aI113300
aI112021
aI1383001
aI1456411
aI122014
aI113311
aI1456416
aI1646128
aI1485603
aI1595302
aI112039
aI1390172
aI1456560
aI113329
aI112052
aI112053
aI1641016
aI126260
aI1060157
aI1500405
aI112064
aI1583937
aI1601249
aI1465162
aI1157456
aI1486164
aI1464151
aI1028569
aI1149402
aI1149404
aI1158753
aI1218792
aI1379306
aI1158763
aI1007724
aI1308397
aI1027901
aI1025779
aI1462005
aI1237128
aI99391
aI1553789
a.