(dp1
S'3502291'
p2
(lp3
S'40.76432'
p4
aS'-73.99501'
p5
asS'3506933'
p6
(lp7
S'40.714752'
p8
aS'-73.99306'
p9
asS'125274'
p10
(lp11
S'40.744503'
p12
aS'-73.9846'
p13
asS'7182733'
p14
(lp15
S'40.746178'
p16
aS'-73.98909'
p17
asS'455186'
p18
(lp19
S'40.76618'
p20
aS'-73.978516'
p21
asS'225942'
p22
(lp23
S'40.742767'
p24
aS'-73.9831'
p25
asS'3236642'
p26
(lp27
S'40.718204'
p28
aS'-73.98634'
p29
asS'612263'
p30
(lp31
S'40.7565'
p32
aS'-73.98457'
p33
asS'122004'
p34
(lp35
S'40.77447'
p36
aS'-73.98297'
p37
asS'122007'
p38
(lp39
S'40.754772'
p40
aS'-73.991066'
p41
asS'1027901'
p42
(lp43
S'40.743275'
p44
aS'-73.99108'
p45
asS'3235844'
p46
(lp47
S'40.7495'
p48
aS'-73.97667'
p49
asS'93625'
p50
(lp51
S'40.78477'
p52
aS'-73.955666'
p53
asS'93624'
p54
(lp55
S'40.7566'
p56
aS'-73.973404'
p57
asS'268217'
p58
(lp59
S'40.74501'
p60
aS'-73.99127'
p61
asS'268216'
p62
(lp63
S'40.743843'
p64
aS'-73.99305'
p65
asS'93623'
p66
(lp67
S'40.769096'
p68
aS'-73.9816'
p69
asS'93622'
p70
(lp71
S'40.760162'
p72
aS'-73.99609'
p73
asS'1235341'
p74
(lp75
S'40.758938'
p76
aS'-73.96951'
p77
asS'93430'
p78
(lp79
S'40.749897'
p80
aS'-73.97969'
p81
asS'93431'
p82
(lp83
S'40.7497'
p84
aS'-73.97822'
p85
asS'93437'
p86
(lp87
S'40.759647'
p88
aS'-73.98605'
p89
asS'1456416'
p90
(lp91
S'40.725468'
p92
aS'-74.00533'
p93
asS'93526'
p94
(lp95
S'40.754856'
p96
aS'-73.97299'
p97
asS'1456411'
p98
(lp99
S'40.743954'
p100
aS'-73.9841'
p101
asS'93539'
p102
(lp103
S'40.785587'
p104
aS'-73.9817'
p105
asS'93534'
p106
(lp107
S'40.759747'
p108
aS'-73.98469'
p109
asS'6385164'
p110
(lp111
S'40.761513'
p112
aS'-73.984955'
p113
asS'75688'
p114
(lp115
S'40.764393'
p116
aS'-73.981735'
p117
asS'235228'
p118
(lp119
S'40.75729'
p120
aS'-73.99858'
p121
asS'122005'
p122
(lp123
S'40.752705'
p124
aS'-73.99348'
p125
asS'7816364'
p126
(lp127
S'40.750362'
p128
aS'-73.98549'
p129
asS'281234'
p130
(lp131
S'40.7448'
p132
aS'-73.99325'
p133
asS'1785018'
p134
(lp135
S'40.722687'
p136
aS'-74.00483'
p137
asS'93445'
p138
(lp139
S'40.763493'
p140
aS'-73.97975'
p141
asS'4702789'
p142
(lp143
S'40.758076'
p144
aS'-73.975365'
p145
asS'254605'
p146
(lp147
S'40.755524'
p148
aS'-73.988'
p149
asS'2096704'
p150
(lp151
S'40.738808'
p152
aS'-73.99042'
p153
asS'247814'
p154
(lp155
S'40.723087'
p156
aS'-73.99025'
p157
asS'99368'
p158
(lp159
S'40.75378'
p160
aS'-73.986336'
p161
asS'99365'
p162
(lp163
S'40.765682'
p164
aS'-73.98297'
p165
asS'3522780'
p166
(lp167
S'40.736156'
p168
aS'-73.996635'
p169
asS'1641016'
p170
(lp171
S'40.756462'
p172
aS'-73.98455'
p173
asS'80112'
p174
(lp175
S'40.75602'
p176
aS'-73.97141'
p177
asS'80110'
p178
(lp179
S'40.745594'
p180
aS'-73.98419'
p181
asS'616735'
p182
(lp183
S'40.794037'
p184
aS'-73.97489'
p185
asS'113311'
p186
(lp187
S'40.761463'
p188
aS'-73.9756'
p189
asS'113317'
p190
(lp191
S'40.756596'
p192
aS'-73.985275'
p193
asS'93589'
p194
(lp195
S'40.761528'
p196
aS'-73.98261'
p197
asS'93581'
p198
(lp199
S'40.735966'
p200
aS'-73.98711'
p201
asS'93583'
p202
(lp203
S'40.760685'
p204
aS'-73.97036'
p205
asS'93585'
p206
(lp207
S'40.765713'
p208
aS'-73.969246'
p209
asS'93586'
p210
(lp211
S'40.754745'
p212
aS'-73.98084'
p213
asS'5888246'
p214
(lp215
S'40.712215'
p216
aS'-73.99269'
p217
asS'596200'
p218
(lp219
S'40.755566'
p220
aS'-73.99726'
p221
asS'93593'
p222
(lp223
S'40.75037'
p224
aS'-73.97395'
p225
asS'7130807'
p226
(lp227
S'40.746708'
p228
aS'-73.99158'
p229
asS'6407567'
p230
(lp231
S'40.75519'
p232
aS'-73.98598'
p233
asS'99443'
p234
(lp235
S'40.79858'
p236
aS'-73.96013'
p237
asS'3613090'
p238
(lp239
S'40.752155'
p240
aS'-73.995155'
p241
asS'575732'
p242
(lp243
S'40.760853'
p244
aS'-73.969376'
p245
asS'99354'
p246
(lp247
S'40.765293'
p248
aS'-73.98321'
p249
asS'93470'
p250
(lp251
S'40.749943'
p252
aS'-73.98107'
p253
asS'3580899'
p254
(lp255
S'40.70886'
p256
aS'-74.00203'
p257
asS'1218720'
p258
(lp259
S'40.740955'
p260
aS'-74.0081'
p261
asS'1500405'
p262
(lp263
S'40.75627'
p264
aS'-73.99283'
p265
asS'99425'
p266
(lp267
S'40.74831'
p268
aS'-73.98783'
p269
asS'584986'
p270
(lp271
S'40.755802'
p272
aS'-73.98039'
p273
asS'1146072'
p274
(lp275
S'40.748196'
p276
aS'-73.98866'
p277
asS'121998'
p278
(lp279
S'40.783005'
p280
aS'-73.94757'
p281
asS'4451787'
p282
(lp283
S'40.75315'
p284
aS'-73.97452'
p285
asS'112041'
p286
(lp287
S'40.734653'
p288
aS'-73.9961'
p289
asS'121991'
p290
(lp291
S'40.749683'
p292
aS'-73.97608'
p293
asS'121996'
p294
(lp295
S'40.749783'
p296
aS'-73.986046'
p297
asS'93364'
p298
(lp299
S'40.7439'
p300
aS'-73.983025'
p301
asS'1237128'
p302
(lp303
S'40.746773'
p304
aS'-73.99174'
p305
asS'93358'
p306
(lp307
S'40.75576'
p308
aS'-73.96909'
p309
asS'249656'
p310
(lp311
S'40.756668'
p312
aS'-73.98517'
p313
asS'643970'
p314
(lp315
S'40.797943'
p316
aS'-73.97'
p317
asS'93566'
p318
(lp319
S'40.77439'
p320
aS'-73.96401'
p321
asS'93565'
p322
(lp323
S'40.748234'
p324
aS'-73.98746'
p325
asS'93561'
p326
(lp327
S'40.722065'
p328
aS'-74.004295'
p329
asS'93401'
p330
(lp331
S'40.7436'
p332
aS'-73.98989'
p333
asS'112039'
p334
(lp335
S'40.793736'
p336
aS'-73.97215'
p337
asS'498869'
p338
(lp339
S'40.748028'
p340
aS'-73.99017'
p341
asS'93568'
p342
(lp343
S'40.7559'
p344
aS'-73.982346'
p345
asS'93569'
p346
(lp347
S'40.76175'
p348
aS'-73.98793'
p349
asS'99321'
p350
(lp351
S'40.764805'
p352
aS'-73.98123'
p353
asS'99327'
p354
(lp355
S'40.75276'
p356
aS'-73.9745'
p357
asS'530265'
p358
(lp359
S'40.79237'
p360
aS'-73.9774'
p361
asS'1786395'
p362
(lp363
S'40.719814'
p364
aS'-74.00007'
p365
asS'93579'
p366
(lp367
S'40.764877'
p368
aS'-73.97534'
p369
asS'4945551'
p370
(lp371
S'40.76465'
p372
aS'-73.98133'
p373
asS'6219365'
p374
(lp375
S'40.726334'
p376
aS'-74.009'
p377
asS'7939016'
p378
(lp379
S'40.721165'
p380
aS'-73.98894'
p381
asS'75711'
p382
(lp383
S'40.760296'
p384
aS'-73.986176'
p385
asS'99391'
p386
(lp387
S'40.752068'
p388
aS'-73.981094'
p389
asS'222959'
p390
(lp391
S'40.705566'
p392
aS'-74.01747'
p393
asS'7014966'
p394
(lp395
S'40.70825'
p396
aS'-74.014114'
p397
asS'1157456'
p398
(lp399
S'40.727055'
p400
aS'-74.00613'
p401
asS'4972409'
p402
(lp403
S'40.732628'
p404
aS'-73.996864'
p405
asS'126260'
p406
(lp407
S'40.757927'
p408
aS'-73.97621'
p409
asS'1465008'
p410
(lp411
S'40.7056'
p412
aS'-74.00724'
p413
asS'6201200'
p414
(lp415
S'40.740948'
p416
aS'-73.98344'
p417
asS'1158753'
p418
(lp419
S'40.764503'
p420
aS'-73.996025'
p421
asS'99392'
p422
(lp423
S'40.750122'
p424
aS'-73.986'
p425
asS'7196011'
p426
(lp427
S'40.65327'
p428
aS'-74.00697'
p429
asS'1940859'
p430
(lp431
S'40.746777'
p432
aS'-73.98738'
p433
asS'5960548'
p434
(lp435
S'40.75664'
p436
aS'-73.96944'
p437
asS'655870'
p438
(lp439
S'40.727203'
p440
aS'-73.99215'
p441
asS'1465162'
p442
(lp443
S'40.75654'
p444
aS'-73.99279'
p445
asS'1206876'
p446
(lp447
S'40.81164'
p448
aS'-73.96064'
p449
asS'1139717'
p450
(lp451
S'40.75629'
p452
aS'-73.99321'
p453
asS'5550873'
p454
(lp455
S'40.752014'
p456
aS'-73.984726'
p457
asS'1776857'
p458
(lp459
S'40.750263'
p460
aS'-73.983765'
p461
asS'320562'
p462
(lp463
S'40.749477'
p464
aS'-73.98729'
p465
asS'224221'
p466
(lp467
S'40.75209'
p468
aS'-73.97941'
p469
asS'1308397'
p470
(lp471
S'40.764324'
p472
aS'-73.97793'
p473
asS'113298'
p474
(lp475
S'40.762325'
p476
aS'-73.97128'
p477
asS'4053479'
p478
(lp479
S'40.75042'
p480
aS'-73.98682'
p481
asS'142114'
p482
(lp483
S'40.793324'
p484
aS'-73.9722'
p485
asS'1485961'
p486
(lp487
S'40.70516'
p488
aS'-74.008125'
p489
asS'1149404'
p490
(lp491
S'40.754353'
p492
aS'-73.99415'
p493
asS'601762'
p494
(lp495
S'40.71859'
p496
aS'-73.98976'
p497
asS'3529145'
p498
(lp499
S'40.750492'
p500
aS'-73.98605'
p501
asS'217616'
p502
(lp503
S'40.757782'
p504
aS'-73.98377'
p505
asS'217613'
p506
(lp507
S'40.79871'
p508
aS'-73.97035'
p509
asS'284904'
p510
(lp511
S'40.74517'
p512
aS'-73.98971'
p513
asS'251906'
p514
(lp515
S'40.704643'
p516
aS'-74.01032'
p517
asS'1553789'
p518
(lp519
S'40.70978'
p520
aS'-74.013885'
p521
asS'99774'
p522
(lp523
S'40.747833'
p524
aS'-73.98651'
p525
asS'6023925'
p526
(lp527
S'40.764374'
p528
aS'-73.982704'
p529
asS'1845644'
p530
(lp531
S'40.727562'
p532
aS'-74.005775'
p533
asS'93520'
p534
(lp535
S'40.764656'
p536
aS'-73.98092'
p537
asS'5072714'
p538
(lp539
S'40.72137'
p540
aS'-73.999344'
p541
asS'1601249'
p542
(lp543
S'40.74559'
p544
aS'-73.99387'
p545
asS'93525'
p546
(lp547
S'40.75837'
p548
aS'-73.98332'
p549
asS'273530'
p550
(lp551
S'40.742447'
p552
aS'-74.00391'
p553
asS'7182804'
p554
(lp555
S'40.7098'
p556
aS'-74.00999'
p557
asS'557499'
p558
(lp559
S'40.7945'
p560
aS'-73.97499'
p561
asS'7787303'
p562
(lp563
S'40.74129'
p564
aS'-73.98704'
p565
asS'223021'
p566
(lp567
S'40.75603'
p568
aS'-73.98134'
p569
asS'223023'
p570
(lp571
S'40.76817'
p572
aS'-73.98489'
p573
asS'223022'
p574
(lp575
S'40.71915'
p576
aS'-74.000244'
p577
asS'223024'
p578
(lp579
S'40.74607'
p580
aS'-73.98511'
p581
asS'93359'
p582
(lp583
S'40.760456'
p584
aS'-73.98752'
p585
asS'93457'
p586
(lp587
S'40.763424'
p588
aS'-73.985855'
p589
asS'93454'
p590
(lp591
S'40.760715'
p592
aS'-73.98519'
p593
asS'93452'
p594
(lp595
S'40.74723'
p596
aS'-73.98701'
p597
asS'93450'
p598
(lp599
S'40.75204'
p600
aS'-73.97638'
p601
asS'93351'
p602
(lp603
S'40.715473'
p604
aS'-74.00891'
p605
asS'93352'
p606
(lp607
S'40.758957'
p608
aS'-73.984505'
p609
asS'93357'
p610
(lp611
S'40.765724'
p612
aS'-73.9788'
p613
asS'93356'
p614
(lp615
S'40.760345'
p616
aS'-73.98782'
p617
asS'1390172'
p618
(lp619
S'40.756435'
p620
aS'-73.99254'
p621
asS'99352'
p622
(lp623
S'40.761364'
p624
aS'-73.98646'
p625
asS'99357'
p626
(lp627
S'40.761246'
p628
aS'-73.985954'
p629
asS'620399'
p630
(lp631
S'40.716015'
p632
aS'-74.00733'
p633
asS'6776714'
p634
(lp635
S'40.759785'
p636
aS'-73.97764'
p637
asS'80107'
p638
(lp639
S'40.754784'
p640
aS'-73.97317'
p641
asS'277882'
p642
(lp643
S'40.70888'
p644
aS'-74.00203'
p645
asS'1583937'
p646
(lp647
S'40.720318'
p648
aS'-73.98807'
p649
asS'224217'
p650
(lp651
S'40.743805'
p652
aS'-73.983505'
p653
asS'224214'
p654
(lp655
S'40.752827'
p656
aS'-73.983765'
p657
asS'75698'
p658
(lp659
S'40.708042'
p660
aS'-74.00137'
p661
asS'80087'
p662
(lp663
S'40.75568'
p664
aS'-73.97211'
p665
asS'80081'
p666
(lp667
S'40.738743'
p668
aS'-73.99451'
p669
asS'80083'
p670
(lp671
S'40.743904'
p672
aS'-74.0009'
p673
asS'1181739'
p674
(lp675
S'40.73828'
p676
aS'-74.00942'
p677
asS'6733290'
p678
(lp679
S'40.746117'
p680
aS'-73.983376'
p681
asS'1234559'
p682
(lp683
S'40.709023'
p684
aS'-74.00919'
p685
asS'6877735'
p686
(lp687
S'40.705917'
p688
aS'-74.005'
p689
asS'5039880'
p690
(lp691
S'40.748215'
p692
aS'-73.991196'
p693
asS'313862'
p694
(lp695
S'40.740578'
p696
aS'-74.00593'
p697
asS'1852917'
p698
(lp699
S'40.755684'
p700
aS'-73.99194'
p701
asS'673077'
p702
(lp703
S'40.75564'
p704
aS'-73.99164'
p705
asS'2173604'
p706
(lp707
S'40.742214'
p708
aS'-74.00322'
p709
asS'93486'
p710
(lp711
S'40.75714'
p712
aS'-73.98473'
p713
asS'93489'
p714
(lp715
S'40.749268'
p716
aS'-73.976326'
p717
asS'630950'
p718
(lp719
S'40.74835'
p720
aS'-73.994644'
p721
asS'4283443'
p722
(lp723
S'40.74595'
p724
aS'-74.005'
p725
asS'7737096'
p726
(lp727
S'40.75523'
p728
aS'-73.991714'
p729
asS'571166'
p730
(lp731
S'40.73846'
p732
aS'-73.985664'
p733
asS'2622936'
p734
(lp735
S'40.71698'
p736
aS'-73.99522'
p737
asS'214197'
p738
(lp739
S'40.750034'
p740
aS'-73.99123'
p741
asS'113329'
p742
(lp743
S'40.749935'
p744
aS'-73.98099'
p745
asS'112053'
p746
(lp747
S'40.72493'
p748
aS'-73.99865'
p749
asS'112052'
p750
(lp751
S'40.775326'
p752
aS'-73.96329'
p753
asS'121981'
p754
(lp755
S'40.75226'
p756
aS'-73.98552'
p757
asS'1025779'
p758
(lp759
S'40.756332'
p760
aS'-73.99305'
p761
asS'121987'
p762
(lp763
S'40.781933'
p764
aS'-73.98194'
p765
asS'609602'
p766
(lp767
S'40.73469'
p768
aS'-73.98804'
p769
asS'1199530'
p770
(lp771
S'40.75371'
p772
aS'-73.97159'
p773
asS'93398'
p774
(lp775
S'40.72393'
p776
aS'-74.00312'
p777
asS'220243'
p778
(lp779
S'40.736534'
p780
aS'-73.988625'
p781
asS'2079052'
p782
(lp783
S'40.759247'
p784
aS'-73.99551'
p785
asS'93396'
p786
(lp787
S'40.75583'
p788
aS'-73.982155'
p789
asS'93390'
p790
(lp791
S'40.78243'
p792
aS'-73.98133'
p793
asS'7148761'
p794
(lp795
S'40.756424'
p796
aS'-73.994705'
p797
asS'93419'
p798
(lp799
S'40.774353'
p800
aS'-73.96317'
p801
asS'93555'
p802
(lp803
S'40.76242'
p804
aS'-73.981804'
p805
asS'673080'
p806
(lp807
S'40.745377'
p808
aS'-73.99225'
p809
asS'292140'
p810
(lp811
S'40.719475'
p812
aS'-73.994644'
p813
asS'518280'
p814
(lp815
S'40.75748'
p816
aS'-73.9838'
p817
asS'4457041'
p818
(lp819
S'40.71339'
p820
aS'-73.992905'
p821
asS'641209'
p822
(lp823
S'40.7466'
p824
aS'-73.99139'
p825
asS'1383001'
p826
(lp827
S'40.71664'
p828
aS'-73.994804'
p829
asS'632551'
p830
(lp831
S'40.720863'
p832
aS'-74.00545'
p833
asS'1806062'
p834
(lp835
S'40.756325'
p836
aS'-73.98221'
p837
asS'281697'
p838
(lp839
S'40.752693'
p840
aS'-73.972435'
p841
asS'4053109'
p842
(lp843
S'40.75121'
p844
aS'-73.98466'
p845
asS'1464151'
p846
(lp847
S'40.75639'
p848
aS'-73.99237'
p849
asS'126257'
p850
(lp851
S'40.744553'
p852
aS'-73.98181'
p853
asS'1158763'
p854
(lp855
S'40.750416'
p856
aS'-73.98631'
p857
asS'99382'
p858
(lp859
S'40.739483'
p860
aS'-73.98232'
p861
asS'1938661'
p862
(lp863
S'40.758755'
p864
aS'-73.98847'
p865
asS'1888977'
p866
(lp867
S'40.761482'
p868
aS'-73.98547'
p869
asS'99387'
p870
(lp871
S'40.746655'
p872
aS'-73.98449'
p873
asS'99388'
p874
(lp875
S'40.743893'
p876
aS'-73.98121'
p877
asS'99389'
p878
(lp879
S'40.74396'
p880
aS'-73.98712'
p881
asS'1379306'
p882
(lp883
S'40.762383'
p884
aS'-73.97967'
p885
asS'224223'
p886
(lp887
S'40.74722'
p888
aS'-73.986336'
p889
asS'1746459'
p890
(lp891
S'40.72063'
p892
aS'-73.99535'
p893
asS'224226'
p894
(lp895
S'40.755905'
p896
aS'-73.98214'
p897
asS'224224'
p898
(lp899
S'40.765274'
p900
aS'-73.9758'
p901
asS'224229'
p902
(lp903
S'40.77951'
p904
aS'-73.98657'
p905
asS'634696'
p906
(lp907
S'40.725933'
p908
aS'-73.99151'
p909
asS'122022'
p910
(lp911
S'40.75439'
p912
aS'-73.96929'
p913
asS'122020'
p914
(lp915
S'40.740364'
p916
aS'-74.003426'
p917
asS'7314002'
p918
(lp919
S'40.76128'
p920
aS'-73.97764'
p921
asS'1791248'
p922
(lp923
S'40.715252'
p924
aS'-73.99947'
p925
asS'1503474'
p926
(lp927
S'40.75674'
p928
aS'-73.992836'
p929
asS'671150'
p930
(lp931
S'40.771496'
p932
aS'-73.982666'
p933
asS'1214829'
p934
(lp935
S'40.746964'
p936
aS'-73.990906'
p937
asS'1485603'
p938
(lp939
S'40.75934'
p940
aS'-73.99088'
p941
asS'93603'
p942
(lp943
S'40.765244'
p944
aS'-73.972'
p945
asS'157057'
p946
(lp947
S'40.762905'
p948
aS'-73.97535'
p949
asS'93607'
p950
(lp951
S'40.76455'
p952
aS'-73.969215'
p953
asS'93606'
p954
(lp955
S'40.76671'
p956
aS'-73.96831'
p957
asS'1060157'
p958
(lp959
S'40.7185'
p960
aS'-73.99522'
p961
asS'112019'
p962
(lp963
S'40.744007'
p964
aS'-73.99605'
p965
asS'1878946'
p966
(lp967
S'40.80908'
p968
aS'-73.95148'
p969
asS'208455'
p970
(lp971
S'40.719383'
p972
aS'-74.00492'
p973
asS'208454'
p974
(lp975
S'40.755844'
p976
aS'-73.982'
p977
asS'208453'
p978
(lp979
S'40.756504'
p980
aS'-73.988976'
p981
asS'208452'
p982
(lp983
S'40.715008'
p984
aS'-74.01526'
p985
asS'217626'
p986
(lp987
S'40.7566'
p988
aS'-73.97198'
p989
asS'217627'
p990
(lp991
S'40.788902'
p992
aS'-73.975105'
p993
asS'217629'
p994
(lp995
S'40.75972'
p996
aS'-73.9773'
p997
asS'93517'
p998
(lp999
S'40.75963'
p1000
aS'-73.987'
p1001
asS'93516'
p1002
(lp1003
S'40.76253'
p1004
aS'-73.98364'
p1005
asS'1477775'
p1006
(lp1007
S'40.743538'
p1008
aS'-73.98623'
p1009
asS'99447'
p1010
(lp1011
S'40.776134'
p1012
aS'-73.97765'
p1013
asS'99762'
p1014
(lp1015
S'40.742134'
p1016
aS'-73.9845'
p1017
asS'1176643'
p1018
(lp1019
S'40.78396'
p1020
aS'-73.97191'
p1021
asS'99766'
p1022
(lp1023
S'40.75493'
p1024
aS'-73.97718'
p1025
asS'217622'
p1026
(lp1027
S'40.751633'
p1028
aS'-73.979095'
p1029
asS'1207461'
p1030
(lp1031
S'40.83052'
p1032
aS'-73.94256'
p1033
asS'217623'
p1034
(lp1035
S'40.70672'
p1036
aS'-74.00882'
p1037
asS'611947'
p1038
(lp1039
S'40.7625'
p1040
aS'-73.97967'
p1041
asS'1028569'
p1042
(lp1043
S'40.719822'
p1044
aS'-74.009865'
p1045
asS'1128769'
p1046
(lp1047
S'40.722076'
p1048
aS'-73.9885'
p1049
asS'6582176'
p1050
(lp1051
S'40.765385'
p1052
aS'-73.97896'
p1053
asS'1201072'
p1054
(lp1055
S'40.745743'
p1056
aS'-73.98826'
p1057
asS'550885'
p1058
(lp1059
S'40.770123'
p1060
aS'-73.95791'
p1061
asS'223019'
p1062
(lp1063
S'40.744488'
p1064
aS'-73.98914'
p1065
asS'209382'
p1066
(lp1067
S'40.75054'
p1068
aS'-73.96934'
p1069
asS'1762573'
p1070
(lp1071
S'40.75284'
p1072
aS'-73.98095'
p1073
asS'93462'
p1074
(lp1075
S'40.755703'
p1076
aS'-73.97352'
p1077
asS'607712'
p1078
(lp1079
S'40.759987'
p1080
aS'-73.97823'
p1081
asS'93466'
p1082
(lp1083
S'40.7567'
p1084
aS'-73.97154'
p1085
asS'1186070'
p1086
(lp1087
S'40.751293'
p1088
aS'-73.98489'
p1089
asS'93464'
p1090
(lp1091
S'40.764175'
p1092
aS'-73.978485'
p1093
asS'93340'
p1094
(lp1095
S'40.759907'
p1096
aS'-73.9732'
p1097
asS'93346'
p1098
(lp1099
S'40.76508'
p1100
aS'-73.97836'
p1101
asS'93344'
p1102
(lp1103
S'40.768326'
p1104
aS'-73.98732'
p1105
asS'93345'
p1106
(lp1107
S'40.764347'
p1108
aS'-73.992386'
p1109
asS'624442'
p1110
(lp1111
S'40.74916'
p1112
aS'-73.98402'
p1113
asS'3583686'
p1114
(lp1115
S'40.754715'
p1116
aS'-73.97256'
p1117
asS'578305'
p1118
(lp1119
S'40.752823'
p1120
aS'-73.98598'
p1121
asS'2643161'
p1122
(lp1123
S'40.74496'
p1124
aS'-73.98851'
p1125
asS'1462005'
p1126
(lp1127
S'40.70925'
p1128
aS'-74.01381'
p1129
asS'4446427'
p1130
(lp1131
S'40.753'
p1132
aS'-73.97457'
p1133
asS'80075'
p1134
(lp1135
S'40.76174'
p1136
aS'-73.985275'
p1137
asS'5786212'
p1138
(lp1139
S'40.76453'
p1140
aS'-73.98307'
p1141
asS'2148819'
p1142
(lp1143
S'40.755245'
p1144
aS'-73.97298'
p1145
asS'290982'
p1146
(lp1147
S'40.74291'
p1148
aS'-73.99076'
p1149
asS'80092'
p1150
(lp1151
S'40.778797'
p1152
aS'-73.984566'
p1153
asS'80093'
p1154
(lp1155
S'40.743736'
p1156
aS'-73.98062'
p1157
asS'290987'
p1158
(lp1159
S'40.729317'
p1160
aS'-73.9897'
p1161
asS'1575440'
p1162
(lp1163
S'40.767628'
p1164
aS'-73.95277'
p1165
asS'260396'
p1166
(lp1167
S'40.781197'
p1168
aS'-73.97975'
p1169
asS'866615'
p1170
(lp1171
S'40.723866'
p1172
aS'-74.00522'
p1173
asS'281071'
p1174
(lp1175
S'40.76901'
p1176
aS'-73.98301'
p1177
asS'1155229'
p1178
(lp1179
S'40.79559'
p1180
aS'-73.972275'
p1181
asS'1733337'
p1182
(lp1183
S'40.75826'
p1184
aS'-73.96214'
p1185
asS'665814'
p1186
(lp1187
S'40.721268'
p1188
aS'-73.99802'
p1189
asS'113343'
p1190
(lp1191
S'40.798702'
p1192
aS'-73.96837'
p1193
asS'1448670'
p1194
(lp1195
S'40.714108'
p1196
aS'-73.99382'
p1197
asS'1858923'
p1198
(lp1199
S'40.703922'
p1200
aS'-74.01225'
p1201
asS'6510520'
p1202
(lp1203
S'40.746838'
p1204
aS'-73.98239'
p1205
asS'122014'
p1206
(lp1207
S'40.707962'
p1208
aS'-74.00718'
p1209
asS'93374'
p1210
(lp1211
S'40.721176'
p1212
aS'-73.99276'
p1213
asS'122011'
p1214
(lp1215
S'40.73814'
p1216
aS'-74.008415'
p1217
asS'1486164'
p1218
(lp1219
S'40.751175'
p1220
aS'-73.98455'
p1221
asS'1218792'
p1222
(lp1223
S'40.750443'
p1224
aS'-73.986565'
p1225
asS'1572980'
p1226
(lp1227
S'40.723034'
p1228
aS'-73.99741'
p1229
asS'112062'
p1230
(lp1231
S'40.76098'
p1232
aS'-73.985504'
p1233
asS'112064'
p1234
(lp1235
S'40.762424'
p1236
aS'-73.97818'
p1237
asS'112066'
p1238
(lp1239
S'40.756058'
p1240
aS'-73.97228'
p1241
asS'1949647'
p1242
(lp1243
S'40.746204'
p1244
aS'-73.991425'
p1245
asS'4799063'
p1246
(lp1247
S'40.757572'
p1248
aS'-73.98404'
p1249
asS'93421'
p1250
(lp1251
S'40.75735'
p1252
aS'-73.988396'
p1253
asS'6883205'
p1254
(lp1255
S'40.764656'
p1256
aS'-73.97674'
p1257
asS'93382'
p1258
(lp1259
S'40.732494'
p1260
aS'-73.998726'
p1261
asS'93383'
p1262
(lp1263
S'40.76759'
p1264
aS'-73.98315'
p1265
asS'93380'
p1266
(lp1267
S'40.759743'
p1268
aS'-73.9892'
p1269
asS'93545'
p1270
(lp1271
S'40.76209'
p1272
aS'-73.982925'
p1273
asS'75737'
p1274
(lp1275
S'40.757267'
p1276
aS'-73.98443'
p1277
asS'1217245'
p1278
(lp1279
S'40.834663'
p1280
aS'-73.939384'
p1281
asS'99302'
p1282
(lp1283
S'40.760216'
p1284
aS'-73.958206'
p1285
asS'99307'
p1286
(lp1287
S'40.76435'
p1288
aS'-73.98066'
p1289
asS'3533197'
p1290
(lp1291
S'40.733383'
p1292
aS'-73.99025'
p1293
asS'2554351'
p1294
(lp1295
S'40.7504'
p1296
aS'-73.98582'
p1297
asS'249712'
p1298
(lp1299
S'40.757683'
p1300
aS'-73.98909'
p1301
asS'249711'
p1302
(lp1303
S'40.757187'
p1304
aS'-73.98123'
p1305
asS'249710'
p1306
(lp1307
S'40.801838'
p1308
aS'-73.966644'
p1309
asS'4232686'
p1310
(lp1311
S'40.764572'
p1312
aS'-73.97848'
p1313
asS'1990870'
p1314
(lp1315
S'40.757977'
p1316
aS'-73.991936'
p1317
asS'7255276'
p1318
(lp1319
S'40.755596'
p1320
aS'-73.98627'
p1321
asS'675616'
p1322
(lp1323
S'40.76447'
p1324
aS'-73.97449'
p1325
asS'93333'
p1326
(lp1327
S'40.74662'
p1328
aS'-73.98674'
p1329
asS'93337'
p1330
(lp1331
S'40.749565'
p1332
aS'-73.97993'
p1333
asS'93335'
p1334
(lp1335
S'40.756287'
p1336
aS'-73.971405'
p1337
asS'93334'
p1338
(lp1339
S'40.78318'
p1340
aS'-73.9737'
p1341
asS'93339'
p1342
(lp1343
S'40.749477'
p1344
aS'-73.97188'
p1345
asS'93338'
p1346
(lp1347
S'40.780586'
p1348
aS'-73.981094'
p1349
asS'262330'
p1350
(lp1351
S'40.711224'
p1352
aS'-74.01034'
p1353
asS'1563892'
p1354
(lp1355
S'40.744003'
p1356
aS'-73.9892'
p1357
asS'3572583'
p1358
(lp1359
S'40.763992'
p1360
aS'-73.99456'
p1361
asS'256738'
p1362
(lp1363
S'40.74354'
p1364
aS'-73.97474'
p1365
asS'3572587'
p1366
(lp1367
S'40.75095'
p1368
aS'-73.97222'
p1369
asS'3973287'
p1370
(lp1371
S'40.750336'
p1372
aS'-73.98568'
p1373
asS'290978'
p1374
(lp1375
S'40.75709'
p1376
aS'-73.98354'
p1377
asS'113309'
p1378
(lp1379
S'40.760487'
p1380
aS'-73.96916'
p1381
asS'1913413'
p1382
(lp1383
S'40.75972'
p1384
aS'-73.97771'
p1385
asS'113300'
p1386
(lp1387
S'40.759403'
p1388
aS'-73.97483'
p1389
asS'93614'
p1390
(lp1391
S'40.761303'
p1392
aS'-73.97481'
p1393
asS'93610'
p1394
(lp1395
S'40.755398'
p1396
aS'-73.982376'
p1397
asS'93612'
p1398
(lp1399
S'40.7625'
p1400
aS'-73.97636'
p1401
asS'674743'
p1402
(lp1403
S'40.718746'
p1404
aS'-74.00048'
p1405
asS'194238'
p1406
(lp1407
S'40.74953'
p1408
aS'-73.97779'
p1409
asS'93618'
p1410
(lp1411
S'40.756725'
p1412
aS'-73.97406'
p1413
asS'6727310'
p1414
(lp1415
S'40.721848'
p1416
aS'-73.98698'
p1417
asS'99288'
p1418
(lp1419
S'40.782127'
p1420
aS'-73.980606'
p1421
asS'6555841'
p1422
(lp1423
S'40.716076'
p1424
aS'-73.99522'
p1425
asS'99281'
p1426
(lp1427
S'40.783527'
p1428
aS'-73.97841'
p1429
asS'1048678'
p1430
(lp1431
S'40.713528'
p1432
aS'-73.99367'
p1433
asS'99287'
p1434
(lp1435
S'40.80182'
p1436
aS'-73.96687'
p1437
asS'3344640'
p1438
(lp1439
S'40.752342'
p1440
aS'-73.98519'
p1441
asS'488793'
p1442
(lp1443
S'40.719845'
p1444
aS'-73.99892'
p1445
asS'1963673'
p1446
(lp1447
S'40.755436'
p1448
aS'-73.97811'
p1449
asS'1149402'
p1450
(lp1451
S'40.72775'
p1452
aS'-73.99085'
p1453
asS'217630'
p1454
(lp1455
S'40.761272'
p1456
aS'-73.991745'
p1457
asS'93507'
p1458
(lp1459
S'40.758373'
p1460
aS'-73.98547'
p1461
asS'1371825'
p1462
(lp1463
S'40.715218'
p1464
aS'-74.0091'
p1465
asS'1456560'
p1466
(lp1467
S'40.747047'
p1468
aS'-73.99006'
p1469
asS'3168954'
p1470
(lp1471
S'40.719036'
p1472
aS'-74.00172'
p1473
asS'246797'
p1474
(lp1475
S'40.78244'
p1476
aS'-73.97595'
p1477
asS'1007724'
p1478
(lp1479
S'40.72287'
p1480
aS'-73.989395'
p1481
asS'1415127'
p1482
(lp1483
S'40.76035'
p1484
aS'-73.98975'
p1485
asS'1646128'
p1486
(lp1487
S'40.75857'
p1488
aS'-73.98955'
p1489
asS'1783324'
p1490
(lp1491
S'40.72115'
p1492
aS'-74.00425'
p1493
asS'93376'
p1494
(lp1495
S'40.759098'
p1496
aS'-73.983734'
p1497
asS'287626'
p1498
(lp1499
S'40.739933'
p1500
aS'-74.00575'
p1501
asS'5040757'
p1502
(lp1503
S'40.75427'
p1504
aS'-73.99308'
p1505
asS'93379'
p1506
(lp1507
S'40.73493'
p1508
aS'-73.98456'
p1509
asS'93575'
p1510
(lp1511
S'40.779762'
p1512
aS'-73.95453'
p1513
asS'93571'
p1514
(lp1515
S'40.744396'
p1516
aS'-73.985695'
p1517
asS'112021'
p1518
(lp1519
S'40.758183'
p1520
aS'-73.98357'
p1521
asS'93475'
p1522
(lp1523
S'40.755516'
p1524
aS'-73.97283'
p1525
asS'93477'
p1526
(lp1527
S'40.709736'
p1528
aS'-74.01474'
p1529
asS'1164645'
p1530
(lp1531
S'40.70568'
p1532
aS'-74.00587'
p1533
asS'99333'
p1534
(lp1535
S'40.76331'
p1536
aS'-73.98682'
p1537
asS'99332'
p1538
(lp1539
S'40.764023'
p1540
aS'-73.982834'
p1541
asS'1217376'
p1542
(lp1543
S'40.755806'
p1544
aS'-73.9975'
p1545
asS'2253206'
p1546
(lp1547
S'40.753616'
p1548
aS'-73.99459'
p1549
asS'1177864'
p1550
(lp1551
S'40.744595'
p1552
aS'-73.99921'
p1553
asS'267182'
p1554
(lp1555
S'40.71869'
p1556
aS'-73.99253'
p1557
asS'267183'
p1558
(lp1559
S'40.71751'
p1560
aS'-73.99497'
p1561
asS'208888'
p1562
(lp1563
S'40.749657'
p1564
aS'-73.99585'
p1565
asS'540545'
p1566
(lp1567
S'40.74889'
p1568
aS'-74.00701'
p1569
asS'1595302'
p1570
(lp1571
S'40.709675'
p1572
aS'-74.014'
p1573
asS'99371'
p1574
(lp1575
S'40.75752'
p1576
aS'-73.96995'
p1577
asS'630409'
p1578
(lp1579
S'40.76345'
p1580
aS'-73.980515'
p1581
asS'235238'
p1582
(lp1583
S'40.75932'
p1584
aS'-73.98554'
p1585
asS'2151571'
p1586
(lp1587
S'40.750473'
p1588
aS'-74.00334'
p1589
asS'514488'
p1590
(lp1591
S'40.71976'
p1592
aS'-73.98809'
p1593
asS'219622'
p1594
(lp1595
S'40.744453'
p1596
aS'-73.9968'
p1597
asS'4274398'
p1598
(lp1599
S'40.75454'
p1600
aS'-73.9926'
p1601
asS'5039852'
p1602
(lp1603
S'40.764133'
p1604
aS'-73.98249'
p1605
asS'8035866'
p1606
(lp1607
S'40.75566'
p1608
aS'-73.98857'
p1609
asS'620040'
p1610
(lp1611
S'40.7524'
p1612
aS'-73.99125'
p1613
asS'93559'
p1614
(lp1615
S'40.76434'
p1616
aS'-73.972565'
p1617
asS'122015'
p1618
(lp1619
S'40.746025'
p1620
aS'-73.98331'
p1621
asS'564851'
p1622
(lp1623
S'40.780224'
p1624
aS'-73.94603'
p1625
asS'234762'
p1626
(lp1627
S'40.76439'
p1628
aS'-73.97747'
p1629
as.