(dp1
S'3502291'
p2
S'http://www.tripadvisor.com/Hotel_Review-g60763-d3502291-Reviews-Comfort_Inn_Midtown_West-New_York_City_New_York.html\n'
p3
sS'3506933'
p4
S'http://www.tripadvisor.com/Hotel_Review-g60763-d3506933-Reviews-Howard_Johnson_Manhattan_Soho-New_York_City_New_York.html\n'
p5
sS'125274'
p6
S'http://www.tripadvisor.com/Hotel_Review-g60763-d125274-Reviews-Martha_Washington_Hotel-New_York_City_New_York.html\n'
p7
sS'7182733'
p8
S'http://www.tripadvisor.com/Hotel_Review-g60763-d7182733-Reviews-The_Paul-New_York_City_New_York.html\n'
p9
sS'455186'
p10
S'http://www.tripadvisor.com/Hotel_Review-g60763-d455186-Reviews-JW_Marriott_Essex_House_New_York-New_York_City_New_York.html\n'
p11
sS'225942'
p12
S'http://www.tripadvisor.com/Hotel_Review-g60763-d225942-Reviews-Park_South_Hotel-New_York_City_New_York.html\n'
p13
sS'3236642'
p14
S'http://www.tripadvisor.com/Hotel_Review-g60763-d3236642-Reviews-Holiday_Inn_NYC_Lower_East_Side-New_York_City_New_York.html\n'
p15
sS'612263'
p16
S'http://www.tripadvisor.com/Hotel_Review-g60763-d612263-Reviews-Hotel_Mela-New_York_City_New_York.html\n'
p17
sS'122004'
p18
S'http://www.tripadvisor.com/Hotel_Review-g60763-d122004-Reviews-Phillips_Club-New_York_City_New_York.html\n'
p19
sS'122007'
p20
S'http://www.tripadvisor.com/Hotel_Review-g60763-d122007-Reviews-Manhattan_Broadway_Hotel-New_York_City_New_York.html\n'
p21
sS'1027901'
p22
S'http://www.tripadvisor.com/Hotel_Review-g60763-d1027901-Reviews-Wyndham_Garden_Hotel_Manhattan_Chelsea_West-New_York_City_New_York.html\n'
p23
sS'3235844'
p24
S'http://www.tripadvisor.com/Hotel_Review-g60763-d3235844-Reviews-Pod_39_Hotel-New_York_City_New_York.html\n'
p25
sS'93625'
p26
S'http://www.tripadvisor.com/Hotel_Review-g60763-d93625-Reviews-Hotel_Wales-New_York_City_New_York.html\n'
p27
sS'93624'
p28
S'http://www.tripadvisor.com/Hotel_Review-g60763-d93624-Reviews-The_Towers_of_the_Waldorf_Astoria-New_York_City_New_York.html\n'
p29
sS'268217'
p30
S'http://www.tripadvisor.com/Hotel_Review-g60763-d268217-Reviews-Oakwood_at_777_6th_Avenue-New_York_City_New_York.html\n'
p31
sS'268216'
p32
S'http://www.tripadvisor.com/Hotel_Review-g60763-d268216-Reviews-Hampton_Inn_Manhattan_Chelsea-New_York_City_New_York.html\n'
p33
sS'93623'
p34
S'http://www.tripadvisor.com/Hotel_Review-g60763-d93623-Reviews-Trump_International_Hotel_and_Tower_New_York-New_York_City_New_York.html\n'
p35
sS'93622'
p36
S'http://www.tripadvisor.com/Hotel_Review-g60763-d93622-Reviews-Travel_Inn_Hotel_New_York-New_York_City_New_York.html\n'
p37
sS'1235341'
p38
S'http://www.tripadvisor.com/Hotel_Review-g60763-d1235341-Reviews-Carvi_Hotel_New_York-New_York_City_New_York.html\n'
p39
sS'93430'
p40
S'http://www.tripadvisor.com/Hotel_Review-g60763-d93430-Reviews-70_park_avenue_hotel_a_Kimpton_Hotel-New_York_City_New_York.html\n'
p41
sS'93431'
p42
S'http://www.tripadvisor.com/Hotel_Review-g60763-d93431-Reviews-The_Tuscany_A_St_Giles_Boutique_Hotel-New_York_City_New_York.html\n'
p43
sS'93437'
p44
S'http://www.tripadvisor.com/Hotel_Review-g60763-d93437-Reviews-Hotel_Edison_Times_Square-New_York_City_New_York.html\n'
p45
sS'1456416'
p46
S'http://www.tripadvisor.com/Hotel_Review-g60763-d1456416-Reviews-Trump_SoHo_New_York-New_York_City_New_York.html\n'
p47
sS'93526'
p48
S'http://www.tripadvisor.com/Hotel_Review-g60763-d93526-Reviews-The_Lexington_New_York_City_an_Autograph_Collection_Hotel-New_York_City_New_York.html\n'
p49
sS'1456411'
p50
S'http://www.tripadvisor.com/Hotel_Review-g60763-d1456411-Reviews-Gansevoort_Park_Avenue_NYC-New_York_City_New_York.html\n'
p51
sS'93539'
p52
S'http://www.tripadvisor.com/Hotel_Review-g60763-d93539-Reviews-Riverside_Tower-New_York_City_New_York.html\n'
p53
sS'93534'
p54
S'http://www.tripadvisor.com/Hotel_Review-g60763-d93534-Reviews-Renaissance_New_York_Hotel_Times_Square-New_York_City_New_York.html\n'
p55
sS'6385164'
p56
S'http://www.tripadvisor.com/Hotel_Review-g60763-d6385164-Reviews-CitizenM_New_York_Times_Square-New_York_City_New_York.html\n'
p57
sS'75688'
p58
S'http://www.tripadvisor.com/Hotel_Review-g60763-d75688-Reviews-Dream_Midtown-New_York_City_New_York.html\n'
p59
sS'235228'
p60
S'http://www.tripadvisor.com/Hotel_Review-g60763-d235228-Reviews-BEST_WESTERN_Convention_Center_Hotel-New_York_City_New_York.html\n'
p61
sS'122005'
p62
S'http://www.tripadvisor.com/Hotel_Review-g60763-d122005-Reviews-Wyndham_New_Yorker_Hotel-New_York_City_New_York.html\n'
p63
sS'7816364'
p64
S'http://www.tripadvisor.com/Hotel_Review-g60763-d7816364-Reviews-Hotel_Le_Soleil-New_York_City_New_York.html\n'
p65
sS'281234'
p66
S'http://www.tripadvisor.com/Hotel_Review-g60763-d281234-Reviews-Four_Points_by_Sheraton_Manhattan_Chelsea-New_York_City_New_York.html\n'
p67
sS'1785018'
p68
S'http://www.tripadvisor.com/Hotel_Review-g60763-d1785018-Reviews-The_James_New_York-New_York_City_New_York.html\n'
p69
sS'93445'
p70
S'http://www.tripadvisor.com/Hotel_Review-g60763-d93445-Reviews-The_Blakely_New_York-New_York_City_New_York.html\n'
p71
sS'4702789'
p72
S'http://www.tripadvisor.com/Hotel_Review-g60763-d4702789-Reviews-The_Towers_at_Lotte_New_York_Palace-New_York_City_New_York.html\n'
p73
sS'254605'
p74
S'http://www.tripadvisor.com/Hotel_Review-g60763-d254605-Reviews-Hotel_41_at_Times_Square-New_York_City_New_York.html\n'
p75
sS'2096704'
p76
S'http://www.tripadvisor.com/Hotel_Review-g60763-d2096704-Reviews-Hotel_Verite-New_York_City_New_York.html\n'
p77
sS'247814'
p78
S'http://www.tripadvisor.com/Hotel_Review-g60763-d247814-Reviews-The_Gatsby_Hotel-New_York_City_New_York.html\n'
p79
sS'99368'
p80
S'http://www.tripadvisor.com/Hotel_Review-g60763-d99368-Reviews-Courtyard_New_York_Manhattan_Times_Square-New_York_City_New_York.html\n'
p81
sS'99365'
p82
S'http://www.tripadvisor.com/Hotel_Review-g60763-d99365-Reviews-Da_Vinci_Hotel-New_York_City_New_York.html\n'
p83
sS'3522780'
p84
S'http://www.tripadvisor.com/Hotel_Review-g60763-d3522780-Reviews-The_Jade_Hotel-New_York_City_New_York.html\n'
p85
sS'1641016'
p86
S'http://www.tripadvisor.com/Hotel_Review-g60763-d1641016-Reviews-The_Chatwal_A_Luxury_Collection_Hotel_New_York-New_York_City_New_York.html\n'
p87
sS'80112'
p88
S'http://www.tripadvisor.com/Hotel_Review-g60763-d80112-Reviews-San_Carlos_Hotel-New_York_City_New_York.html\n'
p89
sS'80110'
p90
S'http://www.tripadvisor.com/Hotel_Review-g60763-d80110-Reviews-The_Roger-New_York_City_New_York.html\n'
p91
sS'616735'
p92
S'http://www.tripadvisor.com/Hotel_Review-g60763-d616735-Reviews-The_Grant_Hotel-New_York_City_New_York.html\n'
p93
sS'113311'
p94
S'http://www.tripadvisor.com/Hotel_Review-g60763-d113311-Reviews-The_Peninsula_New_York-New_York_City_New_York.html\n'
p95
sS'113317'
p96
S'http://www.tripadvisor.com/Hotel_Review-g60763-d113317-Reviews-Casablanca_Hotel_Times_Square-New_York_City_New_York.html\n'
p97
sS'93589'
p98
S'http://www.tripadvisor.com/Hotel_Review-g60763-d93589-Reviews-The_Michelangelo_Hotel-New_York_City_New_York.html\n'
p99
sS'93581'
p100
S'http://www.tripadvisor.com/Hotel_Review-g60763-d93581-Reviews-The_Inn_at_Irving_Place-New_York_City_New_York.html\n'
p101
sS'93583'
p102
S'http://www.tripadvisor.com/Hotel_Review-g60763-d93583-Reviews-The_Lombardy-New_York_City_New_York.html\n'
p103
sS'93585'
p104
S'http://www.tripadvisor.com/Hotel_Review-g60763-d93585-Reviews-Lowell_Hotel-New_York_City_New_York.html\n'
p105
sS'93586'
p106
S'http://www.tripadvisor.com/Hotel_Review-g60763-d93586-Reviews-The_Mansfield-New_York_City_New_York.html\n'
p107
sS'596200'
p108
S'http://www.tripadvisor.com/Hotel_Review-g60763-d596200-Reviews-Quality_Inn_Midtown_West-New_York_City_New_York.html\n'
p109
sS'93593'
p110
S'http://www.tripadvisor.com/Hotel_Review-g60763-d93593-Reviews-The_Westin_New_York_Grand_Central-New_York_City_New_York.html\n'
p111
sS'7130807'
p112
S'http://www.tripadvisor.com/Hotel_Review-g60763-d7130807-Reviews-Cambria_Hotel_Suites_New_York_Chelsea-New_York_City_New_York.html\n'
p113
sS'6407567'
p114
S'http://www.tripadvisor.com/Hotel_Review-g60763-d6407567-Reviews-Hilton_Garden_Inn_New_York_Times_Square_Central-New_York_City_New_York.html\n'
p115
sS'99443'
p116
S'http://www.tripadvisor.com/Hotel_Review-g60763-d99443-Reviews-Astor_on_the_Park-New_York_City_New_York.html\n'
p117
sS'3613090'
p118
S'http://www.tripadvisor.com/Hotel_Review-g60763-d3613090-Reviews-Fairfield_Inn_Suites_New_York_Midtown_Manhattan_Penn_Station-New_York_City_New_York.html\n'
p119
sS'575732'
p120
S'http://www.tripadvisor.com/Hotel_Review-g60763-d575732-Reviews-Renaissance_New_York_Hotel_57-New_York_City_New_York.html\n'
p121
sS'93470'
p122
S'http://www.tripadvisor.com/Hotel_Review-g60763-d93470-Reviews-NH_New_York_Jolly_Madison_Towers-New_York_City_New_York.html\n'
p123
sS'3580899'
p124
S'http://www.tripadvisor.com/Hotel_Review-g60763-d3580899-Reviews-Hampton_Inn_Manhattan_Downtown_Financial-New_York_City_New_York.html\n'
p125
sS'1218720'
p126
S'http://www.tripadvisor.com/Hotel_Review-g60763-d1218720-Reviews-The_Standard_High_Line-New_York_City_New_York.html\n'
p127
sS'1500405'
p128
S'http://www.tripadvisor.com/Hotel_Review-g60763-d1500405-Reviews-Hampton_Inn_Manhattan_Times_Square_South-New_York_City_New_York.html\n'
p129
sS'99425'
p130
S'http://www.tripadvisor.com/Hotel_Review-g60763-d99425-Reviews-Radisson_Martinique_on_Broadway-New_York_City_New_York.html\n'
p131
sS'584986'
p132
S'http://www.tripadvisor.com/Hotel_Review-g60763-d584986-Reviews-Holiday_Inn_Express_New_York_City_Fifth_Ave-New_York_City_New_York.html\n'
p133
sS'1146072'
p134
S'http://www.tripadvisor.com/Hotel_Review-g60763-d1146072-Reviews-Oakwood_at_6th_Avenue-New_York_City_New_York.html\n'
p135
sS'121998'
p136
S'http://www.tripadvisor.com/Hotel_Review-g60763-d121998-Reviews-The_Marmara_Manhattan-New_York_City_New_York.html\n'
p137
sS'4451787'
p138
S'http://www.tripadvisor.com/Hotel_Review-g60763-d4451787-Reviews-Club_Quarters_Grand_Central-New_York_City_New_York.html\n'
p139
sS'112041'
p140
S'http://www.tripadvisor.com/Hotel_Review-g60763-d112041-Reviews-Larchmont_Hotel-New_York_City_New_York.html\n'
p141
sS'121991'
p142
S'http://www.tripadvisor.com/Hotel_Review-g60763-d121991-Reviews-Seton_Hotel-New_York_City_New_York.html\n'
p143
sS'121996'
p144
S'http://www.tripadvisor.com/Hotel_Review-g60763-d121996-Reviews-The_Gregory-New_York_City_New_York.html\n'
p145
sS'93364'
p146
S'http://www.tripadvisor.com/Hotel_Review-g60763-d93364-Reviews-Hotel_Deauville-New_York_City_New_York.html\n'
p147
sS'1237128'
p148
S'http://www.tripadvisor.com/Hotel_Review-g60763-d1237128-Reviews-Hotel_Indigo_New_York_City_Chelsea-New_York_City_New_York.html\n'
p149
sS'93358'
p150
S'http://www.tripadvisor.com/Hotel_Review-g60763-d93358-Reviews-Pod_51_Hotel-New_York_City_New_York.html\n'
p151
sS'249656'
p152
S'http://www.tripadvisor.com/Hotel_Review-g60763-d249656-Reviews-The_Premier_Hotel-New_York_City_New_York.html\n'
p153
sS'643970'
p154
S'http://www.tripadvisor.com/Hotel_Review-g60763-d643970-Reviews-Broadway_Hotel_and_Hostel-New_York_City_New_York.html\n'
p155
sS'93566'
p156
S'http://www.tripadvisor.com/Hotel_Review-g60763-d93566-Reviews-The_Surrey-New_York_City_New_York.html\n'
p157
sS'93565'
p158
S'http://www.tripadvisor.com/Hotel_Review-g60763-d93565-Reviews-Hotel_Stanford-New_York_City_New_York.html\n'
p159
sS'93561'
p160
S'http://www.tripadvisor.com/Hotel_Review-g60763-d93561-Reviews-Soho_Grand_Hotel-New_York_City_New_York.html\n'
p161
sS'93401'
p162
S'http://www.tripadvisor.com/Hotel_Review-g60763-d93401-Reviews-Comfort_Inn_Chelsea-New_York_City_New_York.html\n'
p163
sS'112039'
p164
S'http://www.tripadvisor.com/Hotel_Review-g60763-d112039-Reviews-Hotel_Newton-New_York_City_New_York.html\n'
p165
sS'498869'
p166
S'http://www.tripadvisor.com/Hotel_Review-g60763-d498869-Reviews-Hampton_Inn_Madison_Square_Garden-New_York_City_New_York.html\n'
p167
sS'93568'
p168
S'http://www.tripadvisor.com/Hotel_Review-g60763-d93568-Reviews-The_Algonquin_Hotel_Times_Square_Autograph_Collection-New_York_City_New_York.html\n'
p169
sS'93569'
p170
S'http://www.tripadvisor.com/Hotel_Review-g60763-d93569-Reviews-The_Belvedere-New_York_City_New_York.html\n'
p171
sS'99321'
p172
S'http://www.tripadvisor.com/Hotel_Review-g60763-d99321-Reviews-The_Manhattan_Club-New_York_City_New_York.html\n'
p173
sS'99327'
p174
S'http://www.tripadvisor.com/Hotel_Review-g60763-d99327-Reviews-Fitzpatrick_Grand_Central_Hotel-New_York_City_New_York.html\n'
p175
sS'530265'
p176
S'http://www.tripadvisor.com/Hotel_Review-g60763-d530265-Reviews-Metro_Home_Trump_Park-New_York_City_New_York.html\n'
p177
sS'1786395'
p178
S'http://www.tripadvisor.com/Hotel_Review-g60763-d1786395-Reviews-NOMO_SOHO_Hotel-New_York_City_New_York.html\n'
p179
sS'93579'
p180
S'http://www.tripadvisor.com/Hotel_Review-g60763-d93579-Reviews-Park_Lane_Hotel-New_York_City_New_York.html\n'
p181
sS'4945551'
p182
S'http://www.tripadvisor.com/Hotel_Review-g60763-d4945551-Reviews-WestHouse_Hotel_New_York-New_York_City_New_York.html\n'
p183
sS'6219365'
p184
S'http://www.tripadvisor.com/Hotel_Review-g60763-d6219365-Reviews-Hotel_Hugo-New_York_City_New_York.html\n'
p185
sS'7939016'
p186
S'http://www.tripadvisor.com/Hotel_Review-g60763-d7939016-Reviews-Orchard_Street_Hotel-New_York_City_New_York.html\n'
p187
sS'75711'
p188
S'http://www.tripadvisor.com/Hotel_Review-g60763-d75711-Reviews-TRYP_by_Wyndham_New_York_Times_Square-New_York_City_New_York.html\n'
p189
sS'222959'
p190
S'http://www.tripadvisor.com/Hotel_Review-g60763-d222959-Reviews-The_Ritz_Carlton_New_York_Battery_Park-New_York_City_New_York.html\n'
p191
sS'7014966'
p192
S'http://www.tripadvisor.com/Hotel_Review-g60763-d7014966-Reviews-Holiday_Inn_Manhattan_Financial_District-New_York_City_New_York.html\n'
p193
sS'1157456'
p194
S'http://www.tripadvisor.com/Hotel_Review-g60763-d1157456-Reviews-Four_Points_by_Sheraton_Manhattan_SoHo_Village-New_York_City_New_York.html\n'
p195
sS'4972409'
p196
S'http://www.tripadvisor.com/Hotel_Review-g60763-d4972409-Reviews-The_Marlton_Hotel-New_York_City_New_York.html\n'
p197
sS'126260'
p198
S'http://www.tripadvisor.com/Hotel_Review-g60763-d126260-Reviews-Lotte_New_York_Palace-New_York_City_New_York.html\n'
p199
sS'1465008'
p200
S'http://www.tripadvisor.com/Hotel_Review-g60763-d1465008-Reviews-Holiday_Inn_Express_New_York_City_Wall_Street-New_York_City_New_York.html\n'
p201
sS'6201200'
p202
S'http://www.tripadvisor.com/Hotel_Review-g60763-d6201200-Reviews-The_Lex_NYC-New_York_City_New_York.html\n'
p203
sS'1158753'
p204
S'http://www.tripadvisor.com/Hotel_Review-g60763-d1158753-Reviews-Ink48_a_Kimpton_Hotel-New_York_City_New_York.html\n'
p205
sS'99392'
p206
S'http://www.tripadvisor.com/Hotel_Review-g60763-d99392-Reviews-Hotel_Metro-New_York_City_New_York.html\n'
p207
sS'99391'
p208
S'http://www.tripadvisor.com/Hotel_Review-g60763-d99391-Reviews-Courtyard_by_Marriott_New_York_Manhattan_Fifth_Avenue-New_York_City_New_York.html\n'
p209
sS'1940859'
p210
S'http://www.tripadvisor.com/Hotel_Review-g60763-d1940859-Reviews-Hyatt_Herald_Square_New_York-New_York_City_New_York.html\n'
p211
sS'5888246'
p212
S'http://www.tripadvisor.com/Hotel_Review-g60763-d5888246-Reviews-Comfort_Inn_Near_Financial_District-New_York_City_New_York.html\n'
p213
sS'655870'
p214
S'http://www.tripadvisor.com/Hotel_Review-g60763-d655870-Reviews-Lafayette_House-New_York_City_New_York.html\n'
p215
sS'1465162'
p216
S'http://www.tripadvisor.com/Hotel_Review-g60763-d1465162-Reviews-Staybridge_Suites_Times_Square_New_York_City-New_York_City_New_York.html\n'
p217
sS'1206876'
p218
S'http://www.tripadvisor.com/Hotel_Review-g60763-d1206876-Reviews-Luxurstay_B_B-New_York_City_New_York.html\n'
p219
sS'1139717'
p220
S'http://www.tripadvisor.com/Hotel_Review-g60763-d1139717-Reviews-Holiday_Inn_Express_New_York_City_Times_Square-New_York_City_New_York.html\n'
p221
sS'5550873'
p222
S'http://www.tripadvisor.com/Hotel_Review-g60763-d5550873-Reviews-Archer_Hotel_New_York-New_York_City_New_York.html\n'
p223
sS'1776857'
p224
S'http://www.tripadvisor.com/Hotel_Review-g60763-d1776857-Reviews-Langham_Place_New_York_Fifth_Avenue-New_York_City_New_York.html\n'
p225
sS'320562'
p226
S'http://www.tripadvisor.com/Hotel_Review-g60763-d320562-Reviews-YourStay_MidTown_Apartments-New_York_City_New_York.html\n'
p227
sS'224221'
p228
S'http://www.tripadvisor.com/Hotel_Review-g60763-d224221-Reviews-Library_Hotel-New_York_City_New_York.html\n'
p229
sS'1308397'
p230
S'http://www.tripadvisor.com/Hotel_Review-g60763-d1308397-Reviews-West_57th_Street_by_Hilton_Club-New_York_City_New_York.html\n'
p231
sS'113298'
p232
S'http://www.tripadvisor.com/Hotel_Review-g60763-d113298-Reviews-Four_Seasons_Hotel_New_York-New_York_City_New_York.html\n'
p233
sS'4053479'
p234
S'http://www.tripadvisor.com/Hotel_Review-g60763-d4053479-Reviews-Courtyard_New_York_Manhattan_Herald_Square-New_York_City_New_York.html\n'
p235
sS'142114'
p236
S'http://www.tripadvisor.com/Hotel_Review-g60763-d142114-Reviews-Days_Inn_Hotel_New_York_City_Broadway-New_York_City_New_York.html\n'
p237
sS'1485961'
p238
S'http://www.tripadvisor.com/Hotel_Review-g60763-d1485961-Reviews-Andaz_Wall_Street-New_York_City_New_York.html\n'
p239
sS'1149404'
p240
S'http://www.tripadvisor.com/Hotel_Review-g60763-d1149404-Reviews-Doubletree_By_Hilton_Times_Square_South-New_York_City_New_York.html\n'
p241
sS'601762'
p242
S'http://www.tripadvisor.com/Hotel_Review-g60763-d601762-Reviews-Blue_Moon_Hotel-New_York_City_New_York.html\n'
p243
sS'3529145'
p244
S'http://www.tripadvisor.com/Hotel_Review-g60763-d3529145-Reviews-Holiday_Inn_Express_Manhattan_Times_Square_South-New_York_City_New_York.html\n'
p245
sS'217616'
p246
S'http://www.tripadvisor.com/Hotel_Review-g60763-d217616-Reviews-The_Muse_Hotel_New_York-New_York_City_New_York.html\n'
p247
sS'217613'
p248
S'http://www.tripadvisor.com/Hotel_Review-g60763-d217613-Reviews-Chocolat_Hostel-New_York_City_New_York.html\n'
p249
sS'284904'
p250
S'http://www.tripadvisor.com/Hotel_Review-g60763-d284904-Reviews-Senton_Hotel-New_York_City_New_York.html\n'
p251
sS'251906'
p252
S'http://www.tripadvisor.com/Hotel_Review-g60763-d251906-Reviews-The_Wall_Street_Inn-New_York_City_New_York.html\n'
p253
sS'1553789'
p254
S'http://www.tripadvisor.com/Hotel_Review-g60763-d1553789-Reviews-World_Center_Hotel-New_York_City_New_York.html\n'
p255
sS'99774'
p256
S'http://www.tripadvisor.com/Hotel_Review-g60763-d99774-Reviews-La_Quinta_Inn_Manhattan-New_York_City_New_York.html\n'
p257
sS'6023925'
p258
S'http://www.tripadvisor.com/Hotel_Review-g60763-d6023925-Reviews-Residence_Inn_New_York_Manhattan_Central_Park-New_York_City_New_York.html\n'
p259
sS'1845644'
p260
S'http://www.tripadvisor.com/Hotel_Review-g60763-d1845644-Reviews-Courtyard_New_York_Manhattan_Soho-New_York_City_New_York.html\n'
p261
sS'93520'
p262
S'http://www.tripadvisor.com/Hotel_Review-g60763-d93520-Reviews-Park_Central-New_York_City_New_York.html\n'
p263
sS'5072714'
p264
S'http://www.tripadvisor.com/Hotel_Review-g60763-d5072714-Reviews-The_Broome-New_York_City_New_York.html\n'
p265
sS'1601249'
p266
S'http://www.tripadvisor.com/Hotel_Review-g60763-d1601249-Reviews-Hilton_New_York_Fashion_District-New_York_City_New_York.html\n'
p267
sS'93525'
p268
S'http://www.tripadvisor.com/Hotel_Review-g60763-d93525-Reviews-Sanctuary_Hotel_New_York-New_York_City_New_York.html\n'
p269
sS'273530'
p270
S'http://www.tripadvisor.com/Hotel_Review-g60763-d273530-Reviews-The_Maritime_Hotel-New_York_City_New_York.html\n'
p271
sS'7182804'
p272
S'http://www.tripadvisor.com/Hotel_Review-g60763-d7182804-Reviews-Residence_Inn_New_York_Manhattan_World_Trade_Center_Area-New_York_City_New_York.html\n'
p273
sS'557499'
p274
S'http://www.tripadvisor.com/Hotel_Review-g60763-d557499-Reviews-Mount_Royal_Hotel_Hostel-New_York_City_New_York.html\n'
p275
sS'7787303'
p276
S'http://www.tripadvisor.com/Hotel_Review-g60763-d7787303-Reviews-The_New_York_EDITION-New_York_City_New_York.html\n'
p277
sS'223021'
p278
S'http://www.tripadvisor.com/Hotel_Review-g60763-d223021-Reviews-Club_Quarters_Midtown-New_York_City_New_York.html\n'
p279
sS'223023'
p280
S'http://www.tripadvisor.com/Hotel_Review-g60763-d223023-Reviews-Hudson_Hotel_New_York-New_York_City_New_York.html\n'
p281
sS'223022'
p282
S'http://www.tripadvisor.com/Hotel_Review-g60763-d223022-Reviews-Holiday_Inn_SoHo_New_York-New_York_City_New_York.html\n'
p283
sS'223024'
p284
S'http://www.tripadvisor.com/Hotel_Review-g60763-d223024-Reviews-Hotel_Chandler-New_York_City_New_York.html\n'
p285
sS'93359'
p286
S'http://www.tripadvisor.com/Hotel_Review-g60763-d93359-Reviews-Econo_Lodge_Times_Square-New_York_City_New_York.html\n'
p287
sS'93457'
p288
S'http://www.tripadvisor.com/Hotel_Review-g60763-d93457-Reviews-Hampton_Inn_Manhattan_Times_Square_North-New_York_City_New_York.html\n'
p289
sS'93454'
p290
S'http://www.tripadvisor.com/Hotel_Review-g60763-d93454-Reviews-Crowne_Plaza_Times_Square_Manhattan-New_York_City_New_York.html\n'
p291
sS'93452'
p292
S'http://www.tripadvisor.com/Hotel_Review-g60763-d93452-Reviews-Herald_Square_Hotel-New_York_City_New_York.html\n'
p293
sS'93450'
p294
S'http://www.tripadvisor.com/Hotel_Review-g60763-d93450-Reviews-Grand_Hyatt_New_York-New_York_City_New_York.html\n'
p295
sS'93351'
p296
S'http://www.tripadvisor.com/Hotel_Review-g60763-d93351-Reviews-Cosmopolitan_Hotel_Tribeca-New_York_City_New_York.html\n'
p297
sS'93352'
p298
S'http://www.tripadvisor.com/Hotel_Review-g60763-d93352-Reviews-DoubleTree_Suites_by_Hilton_Hotel_New_York_City_Times_Square-New_York_City_New_York.html\n'
p299
sS'93357'
p300
S'http://www.tripadvisor.com/Hotel_Review-g60763-d93357-Reviews-Park_Savoy-New_York_City_New_York.html\n'
p301
sS'93356'
p302
S'http://www.tripadvisor.com/Hotel_Review-g60763-d93356-Reviews-New_York_Inn-New_York_City_New_York.html\n'
p303
sS'1390172'
p304
S'http://www.tripadvisor.com/Hotel_Review-g60763-d1390172-Reviews-Fairfield_Inn_Suites_by_Marriott_New_York_Manhattan_Times_Square-New_York_City_New_York.html\n'
p305
sS'99352'
p306
S'http://www.tripadvisor.com/Hotel_Review-g60763-d99352-Reviews-Hilton_Garden_Inn_Times_Square-New_York_City_New_York.html\n'
p307
sS'99357'
p308
S'http://www.tripadvisor.com/Hotel_Review-g60763-d99357-Reviews-Mayfair_Hotel-New_York_City_New_York.html\n'
p309
sS'99354'
p310
S'http://www.tripadvisor.com/Hotel_Review-g60763-d99354-Reviews-Moderne_Hotel-New_York_City_New_York.html\n'
p311
sS'6776714'
p312
S'http://www.tripadvisor.com/Hotel_Review-g60763-d6776714-Reviews-Club_Quarters_The_Annex_at_Rockefeller_Center-New_York_City_New_York.html\n'
p313
sS'80107'
p314
S'http://www.tripadvisor.com/Hotel_Review-g60763-d80107-Reviews-Roger_Smith_Hotel-New_York_City_New_York.html\n'
p315
sS'277882'
p316
S'http://www.tripadvisor.com/Hotel_Review-g60763-d277882-Reviews-Hampton_Inn_Manhattan_Seaport_Financial_District-New_York_City_New_York.html\n'
p317
sS'1583937'
p318
S'http://www.tripadvisor.com/Hotel_Review-g60763-d1583937-Reviews-Comfort_Inn_Lower_East_Side-New_York_City_New_York.html\n'
p319
sS'224217'
p320
S'http://www.tripadvisor.com/Hotel_Review-g60763-d224217-Reviews-Clarion_Hotel_Park_Avenue-New_York_City_New_York.html\n'
p321
sS'224214'
p322
S'http://www.tripadvisor.com/Hotel_Review-g60763-d224214-Reviews-The_Bryant_Park_Hotel-New_York_City_New_York.html\n'
p323
sS'75698'
p324
S'http://www.tripadvisor.com/Hotel_Review-g60763-d75698-Reviews-BEST_WESTERN_PLUS_Seaport_Inn_Downtown-New_York_City_New_York.html\n'
p325
sS'80087'
p326
S'http://www.tripadvisor.com/Hotel_Review-g60763-d80087-Reviews-BEST_WESTERN_PLUS_Hospitality_House-New_York_City_New_York.html\n'
p327
sS'80081'
p328
S'http://www.tripadvisor.com/Hotel_Review-g60763-d80081-Reviews-Chelsea_Inn_17th_Street-New_York_City_New_York.html\n'
p329
sS'80083'
p330
S'http://www.tripadvisor.com/Hotel_Review-g60763-d80083-Reviews-Chelsea_Lodge-New_York_City_New_York.html\n'
p331
sS'1181739'
p332
S'http://www.tripadvisor.com/Hotel_Review-g60763-d1181739-Reviews-The_Jane-New_York_City_New_York.html\n'
p333
sS'6733290'
p334
S'http://www.tripadvisor.com/Hotel_Review-g60763-d6733290-Reviews-Hotel_32_32-New_York_City_New_York.html\n'
p335
sS'1234559'
p336
S'http://www.tripadvisor.com/Hotel_Review-g60763-d1234559-Reviews-Holiday_Inn_New_York_City_Wall_Street-New_York_City_New_York.html\n'
p337
sS'6877735'
p338
S'http://www.tripadvisor.com/Hotel_Review-g60763-d6877735-Reviews-Fairfield_Inn_New_York_Manhattan_Financial_District-New_York_City_New_York.html\n'
p339
sS'5039880'
p340
S'http://www.tripadvisor.com/Hotel_Review-g60763-d5039880-Reviews-Courtyard_New_York_Manhattan_Chelsea-New_York_City_New_York.html\n'
p341
sS'313862'
p342
S'http://www.tripadvisor.com/Hotel_Review-g60763-d313862-Reviews-Soho_House_New_York-New_York_City_New_York.html\n'
p343
sS'1852917'
p344
S'http://www.tripadvisor.com/Hotel_Review-g60763-d1852917-Reviews-Element_New_York_Times_Square_West-New_York_City_New_York.html\n'
p345
sS'673077'
p346
S'http://www.tripadvisor.com/Hotel_Review-g60763-d673077-Reviews-Comfort_Inn_Times_Square_South-New_York_City_New_York.html\n'
p347
sS'2173604'
p348
S'http://www.tripadvisor.com/Hotel_Review-g60763-d2173604-Reviews-Dream_Downtown-New_York_City_New_York.html\n'
p349
sS'93486'
p350
S'http://www.tripadvisor.com/Hotel_Review-g60763-d93486-Reviews-Millennium_Hotel_Broadway-New_York_City_New_York.html\n'
p351
sS'93489'
p352
S'http://www.tripadvisor.com/Hotel_Review-g60763-d93489-Reviews-Murray_Hill_East_Suites-New_York_City_New_York.html\n'
p353
sS'630950'
p354
S'http://www.tripadvisor.com/Hotel_Review-g60763-d630950-Reviews-Holiday_Inn_Express_NYC_Madison_Square_Garden-New_York_City_New_York.html\n'
p355
sS'4283443'
p356
S'http://www.tripadvisor.com/Hotel_Review-g60763-d4283443-Reviews-The_High_Line_Hotel-New_York_City_New_York.html\n'
p357
sS'7737096'
p358
S'http://www.tripadvisor.com/Hotel_Review-g60763-d7737096-Reviews-Holiday_Inn_New_York_Times_Square_South-New_York_City_New_York.html\n'
p359
sS'571166'
p360
S'http://www.tripadvisor.com/Hotel_Review-g60763-d571166-Reviews-Gramercy_Park_Hotel-New_York_City_New_York.html\n'
p361
sS'2622936'
p362
S'http://www.tripadvisor.com/Hotel_Review-g60763-d2622936-Reviews-Wyndham_Garden_Chinatown-New_York_City_New_York.html\n'
p363
sS'214197'
p364
S'http://www.tripadvisor.com/Hotel_Review-g60763-d214197-Reviews-Hotel_Pennsylvania_New_York-New_York_City_New_York.html\n'
p365
sS'113329'
p366
S'http://www.tripadvisor.com/Hotel_Review-g60763-d113329-Reviews-Morgans_New_York_Hotel-New_York_City_New_York.html\n'
p367
sS'112053'
p368
S'http://www.tripadvisor.com/Hotel_Review-g60763-d112053-Reviews-The_Mercer_Hotel-New_York_City_New_York.html\n'
p369
sS'112052'
p370
S'http://www.tripadvisor.com/Hotel_Review-g60763-d112052-Reviews-The_Mark-New_York_City_New_York.html\n'
p371
sS'121981'
p372
S'http://www.tripadvisor.com/Hotel_Review-g60763-d121981-Reviews-Americana_Inn-New_York_City_New_York.html\n'
p373
sS'1025779'
p374
S'http://www.tripadvisor.com/Hotel_Review-g60763-d1025779-Reviews-Candlewood_Suites_New_York_City_Times_Square-New_York_City_New_York.html\n'
p375
sS'121987'
p376
S'http://www.tripadvisor.com/Hotel_Review-g60763-d121987-Reviews-The_Milburn_Hotel-New_York_City_New_York.html\n'
p377
sS'609602'
p378
S'http://www.tripadvisor.com/Hotel_Review-g60763-d609602-Reviews-Seafarers_International_House-New_York_City_New_York.html\n'
p379
sS'1199530'
p380
S'http://www.tripadvisor.com/Hotel_Review-g60763-d1199530-Reviews-Oxbridge_Midtown_East_Apartments-New_York_City_New_York.html\n'
p381
sS'93398'
p382
S'http://www.tripadvisor.com/Hotel_Review-g60763-d93398-Reviews-SIXTY_SoHo-New_York_City_New_York.html\n'
p383
sS'220243'
p384
S'http://www.tripadvisor.com/Hotel_Review-g60763-d220243-Reviews-W_New_York_Union_Square-New_York_City_New_York.html\n'
p385
sS'2079052'
p386
S'http://www.tripadvisor.com/Hotel_Review-g60763-d2079052-Reviews-YOTEL_New_York_at_Times_Square_West-New_York_City_New_York.html\n'
p387
sS'93396'
p388
S'http://www.tripadvisor.com/Hotel_Review-g60763-d93396-Reviews-The_Iroquois_New_York-New_York_City_New_York.html\n'
p389
sS'93390'
p390
S'http://www.tripadvisor.com/Hotel_Review-g60763-d93390-Reviews-Hotel_Belleclaire-New_York_City_New_York.html\n'
p391
sS'7148761'
p392
S'http://www.tripadvisor.com/Hotel_Review-g60763-d7148761-Reviews-Cassa_Hotel_Times_Square-New_York_City_New_York.html\n'
p393
sS'93419'
p394
S'http://www.tripadvisor.com/Hotel_Review-g60763-d93419-Reviews-The_Carlyle_A_Rosewood_Hotel-New_York_City_New_York.html\n'
p395
sS'93555'
p396
S'http://www.tripadvisor.com/Hotel_Review-g60763-d93555-Reviews-Sheraton_New_York_Times_Square_Hotel-New_York_City_New_York.html\n'
p397
sS'673080'
p398
S'http://www.tripadvisor.com/Hotel_Review-g60763-d673080-Reviews-Holiday_Inn_NYC_Manhattan_6th_Avenue_Chelsea-New_York_City_New_York.html\n'
p399
sS'292140'
p400
S'http://www.tripadvisor.com/Hotel_Review-g60763-d292140-Reviews-Sohotel-New_York_City_New_York.html\n'
p401
sS'518280'
p402
S'http://www.tripadvisor.com/Hotel_Review-g60763-d518280-Reviews-Room_Mate_Grace-New_York_City_New_York.html\n'
p403
sS'4457041'
p404
S'http://www.tripadvisor.com/Hotel_Review-g60763-d4457041-Reviews-Fairfield_Inn_Suites_New_York_Manhattan_Downtown_East-New_York_City_New_York.html\n'
p405
sS'641209'
p406
S'http://www.tripadvisor.com/Hotel_Review-g60763-d641209-Reviews-Hilton_Garden_Inn_New_York_Manhattan_Chelsea-New_York_City_New_York.html\n'
p407
sS'1383001'
p408
S'http://www.tripadvisor.com/Hotel_Review-g60763-d1383001-Reviews-Comfort_Inn_Manhattan_Bridge-New_York_City_New_York.html\n'
p409
sS'632551'
p410
S'http://www.tripadvisor.com/Hotel_Review-g60763-d632551-Reviews-Hilton_Garden_Inn_New_York_Tribeca-New_York_City_New_York.html\n'
p411
sS'1806062'
p412
S'http://www.tripadvisor.com/Hotel_Review-g60763-d1806062-Reviews-Cassa_Hotel_45th_Street_New_York-New_York_City_New_York.html\n'
p413
sS'281697'
p414
S'http://www.tripadvisor.com/Hotel_Review-g60763-d281697-Reviews-The_Wyndham_Midtown_45-New_York_City_New_York.html\n'
p415
sS'4053109'
p416
S'http://www.tripadvisor.com/Hotel_Review-g60763-d4053109-Reviews-SpringHill_Suites_New_York_Midtown_Manhattan_Fifth_Avenue-New_York_City_New_York.html\n'
p417
sS'1464151'
p418
S'http://www.tripadvisor.com/Hotel_Review-g60763-d1464151-Reviews-Four_Points_by_Sheraton_Midtown_Times_Square-New_York_City_New_York.html\n'
p419
sS'126257'
p420
S'http://www.tripadvisor.com/Hotel_Review-g60763-d126257-Reviews-Hotel_31-New_York_City_New_York.html\n'
p421
sS'1158763'
p422
S'http://www.tripadvisor.com/Hotel_Review-g60763-d1158763-Reviews-Hampton_Inn_Manhattan_35th_St_Empire_State_Bldg-New_York_City_New_York.html\n'
p423
sS'99382'
p424
S'http://www.tripadvisor.com/Hotel_Review-g60763-d99382-Reviews-The_Marcel_at_Gramercy-New_York_City_New_York.html\n'
p425
sS'1938661'
p426
S'http://www.tripadvisor.com/Hotel_Review-g60763-d1938661-Reviews-Row_NYC_Hotel-New_York_City_New_York.html\n'
p427
sS'1888977'
p428
S'http://www.tripadvisor.com/Hotel_Review-g60763-d1888977-Reviews-The_Pearl_Hotel-New_York_City_New_York.html\n'
p429
sS'99387'
p430
S'http://www.tripadvisor.com/Hotel_Review-g60763-d99387-Reviews-Avalon_Hotel-New_York_City_New_York.html\n'
p431
sS'99388'
p432
S'http://www.tripadvisor.com/Hotel_Review-g60763-d99388-Reviews-Ramada_New_York_Eastside-New_York_City_New_York.html\n'
p433
sS'99389'
p434
S'http://www.tripadvisor.com/Hotel_Review-g60763-d99389-Reviews-The_Evelyn-New_York_City_New_York.html\n'
p435
sS'1379306'
p436
S'http://www.tripadvisor.com/Hotel_Review-g60763-d1379306-Reviews-Hilton_Club_New_York-New_York_City_New_York.html\n'
p437
sS'620399'
p438
S'http://www.tripadvisor.com/Hotel_Review-g60763-d620399-Reviews-Duane_Street_Hotel-New_York_City_New_York.html\n'
p439
sS'224223'
p440
S'http://www.tripadvisor.com/Hotel_Review-g60763-d224223-Reviews-Nyma_the_New_York_Manhattan_Hotel-New_York_City_New_York.html\n'
p441
sS'1746459'
p442
S'http://www.tripadvisor.com/Hotel_Review-g60763-d1746459-Reviews-The_Nolitan_Hotel-New_York_City_New_York.html\n'
p443
sS'224226'
p444
S'http://www.tripadvisor.com/Hotel_Review-g60763-d224226-Reviews-City_Club_Hotel-New_York_City_New_York.html\n'
p445
sS'224224'
p446
S'http://www.tripadvisor.com/Hotel_Review-g60763-d224224-Reviews-The_Ritz_Carlton_New_York_Central_Park-New_York_City_New_York.html\n'
p447
sS'224229'
p448
S'http://www.tripadvisor.com/Hotel_Review-g60763-d224229-Reviews-Hotel_Riverside_Studios-New_York_City_New_York.html\n'
p449
sS'634696'
p450
S'http://www.tripadvisor.com/Hotel_Review-g60763-d634696-Reviews-The_Bowery_Hotel-New_York_City_New_York.html\n'
p451
sS'122022'
p452
S'http://www.tripadvisor.com/Hotel_Review-g60763-d122022-Reviews-Box_Tree_Inn-New_York_City_New_York.html\n'
p453
sS'122020'
p454
S'http://www.tripadvisor.com/Hotel_Review-g60763-d122020-Reviews-Chelsea_Pines_Inn-New_York_City_New_York.html\n'
p455
sS'7314002'
p456
S'http://www.tripadvisor.com/Hotel_Review-g60763-d7314002-Reviews-Baccarat_Hotel_Residences_New_York-New_York_City_New_York.html\n'
p457
sS'1791248'
p458
S'http://www.tripadvisor.com/Hotel_Review-g60763-d1791248-Reviews-Hotel_Mulberry-New_York_City_New_York.html\n'
p459
sS'1503474'
p460
S'http://www.tripadvisor.com/Hotel_Review-g60763-d1503474-Reviews-Distrikt_Hotel-New_York_City_New_York.html\n'
p461
sS'671150'
p462
S'http://www.tripadvisor.com/Hotel_Review-g60763-d671150-Reviews-Empire_Hotel-New_York_City_New_York.html\n'
p463
sS'1214829'
p464
S'http://www.tripadvisor.com/Hotel_Review-g60763-d1214829-Reviews-Doubletree_Hotel_Chelsea_New_York_City-New_York_City_New_York.html\n'
p465
sS'1485603'
p466
S'http://www.tripadvisor.com/Hotel_Review-g60763-d1485603-Reviews-Comfort_Inn_Times_Square_West-New_York_City_New_York.html\n'
p467
sS'93603'
p468
S'http://www.tripadvisor.com/Hotel_Review-g60763-d93603-Reviews-The_Pierre_A_Taj_Hotel_New_York-New_York_City_New_York.html\n'
p469
sS'157057'
p470
S'http://www.tripadvisor.com/Hotel_Review-g60763-d157057-Reviews-Chambers_Hotel-New_York_City_New_York.html\n'
p471
sS'93607'
p472
S'http://www.tripadvisor.com/Hotel_Review-g60763-d93607-Reviews-Loews_Regency_New_York_Hotel-New_York_City_New_York.html\n'
p473
sS'93606'
p474
S'http://www.tripadvisor.com/Hotel_Review-g60763-d93606-Reviews-Hotel_Plaza_Athenee_New_York-New_York_City_New_York.html\n'
p475
sS'1060157'
p476
S'http://www.tripadvisor.com/Hotel_Review-g60763-d1060157-Reviews-BEST_WESTERN_Bowery_Hanbee_Hotel-New_York_City_New_York.html\n'
p477
sS'112019'
p478
S'http://www.tripadvisor.com/Hotel_Review-g60763-d112019-Reviews-Chelsea_Savoy_Hotel-New_York_City_New_York.html\n'
p479
sS'1878946'
p480
S'http://www.tripadvisor.com/Hotel_Review-g60763-d1878946-Reviews-Aloft_Harlem-New_York_City_New_York.html\n'
p481
sS'208455'
p482
S'http://www.tripadvisor.com/Hotel_Review-g60763-d208455-Reviews-Tribeca_Grand_Hotel-New_York_City_New_York.html\n'
p483
sS'208454'
p484
S'http://www.tripadvisor.com/Hotel_Review-g60763-d208454-Reviews-Sofitel_New_York-New_York_City_New_York.html\n'
p485
sS'208453'
p486
S'http://www.tripadvisor.com/Hotel_Review-g60763-d208453-Reviews-Hilton_Times_Square-New_York_City_New_York.html\n'
p487
sS'208452'
p488
S'http://www.tripadvisor.com/Hotel_Review-g60763-d208452-Reviews-Conrad_New_York-New_York_City_New_York.html\n'
p489
sS'217626'
p490
S'http://www.tripadvisor.com/Hotel_Review-g60763-d217626-Reviews-The_Benjamin-New_York_City_New_York.html\n'
p491
sS'217627'
p492
S'http://www.tripadvisor.com/Hotel_Review-g60763-d217627-Reviews-Belnord_Hotel-New_York_City_New_York.html\n'
p493
sS'217629'
p494
S'http://www.tripadvisor.com/Hotel_Review-g60763-d217629-Reviews-3_West_Club-New_York_City_New_York.html\n'
p495
sS'624442'
p496
S'http://www.tripadvisor.com/Hotel_Review-g60763-d624442-Reviews-Hotel_373_Fifth_Avenue-New_York_City_New_York.html\n'
p497
sS'93516'
p498
S'http://www.tripadvisor.com/Hotel_Review-g60763-d93516-Reviews-Novotel_New_York_Times_Square-New_York_City_New_York.html\n'
p499
sS'1477775'
p500
S'http://www.tripadvisor.com/Hotel_Review-g60763-d1477775-Reviews-The_MAve-New_York_City_New_York.html\n'
p501
sS'99447'
p502
S'http://www.tripadvisor.com/Hotel_Review-g60763-d99447-Reviews-Comfort_Inn_Central_Park_West-New_York_City_New_York.html\n'
p503
sS'99762'
p504
S'http://www.tripadvisor.com/Hotel_Review-g60763-d99762-Reviews-Hotel_Giraffe-New_York_City_New_York.html\n'
p505
sS'1176643'
p506
S'http://www.tripadvisor.com/Hotel_Review-g60763-d1176643-Reviews-Central_Park_House-New_York_City_New_York.html\n'
p507
sS'99766'
p508
S'http://www.tripadvisor.com/Hotel_Review-g60763-d99766-Reviews-The_Roosevelt_Hotel-New_York_City_New_York.html\n'
p509
sS'217622'
p510
S'http://www.tripadvisor.com/Hotel_Review-g60763-d217622-Reviews-Eurostars_Dylan_Hotel-New_York_City_New_York.html\n'
p511
sS'1207461'
p512
S'http://www.tripadvisor.com/Hotel_Review-g60763-d1207461-Reviews-Saint_Nicholas_Inn-New_York_City_New_York.html\n'
p513
sS'217623'
p514
S'http://www.tripadvisor.com/Hotel_Review-g60763-d217623-Reviews-Club_Quarters_Hotel_Wall_Street-New_York_City_New_York.html\n'
p515
sS'611947'
p516
S'http://www.tripadvisor.com/Hotel_Review-g60763-d611947-Reviews-New_York_Hilton_Midtown-New_York_City_New_York.html\n'
p517
sS'1028569'
p518
S'http://www.tripadvisor.com/Hotel_Review-g60763-d1028569-Reviews-Greenwich_Hotel-New_York_City_New_York.html\n'
p519
sS'1128769'
p520
S'http://www.tripadvisor.com/Hotel_Review-g60763-d1128769-Reviews-SIXTY_LES-New_York_City_New_York.html\n'
p521
sS'6582176'
p522
S'http://www.tripadvisor.com/Hotel_Review-g60763-d6582176-Reviews-Park_Hyatt_New_York-New_York_City_New_York.html\n'
p523
sS'1201072'
p524
S'http://www.tripadvisor.com/Hotel_Review-g60763-d1201072-Reviews-Ace_Hotel_New_York-New_York_City_New_York.html\n'
p525
sS'550885'
p526
S'http://www.tripadvisor.com/Hotel_Review-g60763-d550885-Reviews-254_East_Vacation-New_York_City_New_York.html\n'
p527
sS'223019'
p528
S'http://www.tripadvisor.com/Hotel_Review-g60763-d223019-Reviews-Broadway_Plaza_Hotel-New_York_City_New_York.html\n'
p529
sS'209382'
p530
S'http://www.tripadvisor.com/Hotel_Review-g60763-d209382-Reviews-ONE_UN_New_York-New_York_City_New_York.html\n'
p531
sS'1762573'
p532
S'http://www.tripadvisor.com/Hotel_Review-g60763-d1762573-Reviews-Andaz_5th_Avenue-New_York_City_New_York.html\n'
p533
sS'93462'
p534
S'http://www.tripadvisor.com/Hotel_Review-g60763-d93462-Reviews-InterContinental_New_York_Barclay-New_York_City_New_York.html\n'
p535
sS'607712'
p536
S'http://www.tripadvisor.com/Hotel_Review-g60763-d607712-Reviews-Club_Quarters_opposite_Rockefeller_Center-New_York_City_New_York.html\n'
p537
sS'93466'
p538
S'http://www.tripadvisor.com/Hotel_Review-g60763-d93466-Reviews-Doubletree_Hotel_Metropolitan_New_York_City-New_York_City_New_York.html\n'
p539
sS'1186070'
p540
S'http://www.tripadvisor.com/Hotel_Review-g60763-d1186070-Reviews-The_Strand_Hotel-New_York_City_New_York.html\n'
p541
sS'93464'
p542
S'http://www.tripadvisor.com/Hotel_Review-g60763-d93464-Reviews-Le_Parker_Meridien_New_York-New_York_City_New_York.html\n'
p543
sS'93340'
p544
S'http://www.tripadvisor.com/Hotel_Review-g60763-d93340-Reviews-Hotel_Elysee-New_York_City_New_York.html\n'
p545
sS'93346'
p546
S'http://www.tripadvisor.com/Hotel_Review-g60763-d93346-Reviews-Salisbury_Hotel-New_York_City_New_York.html\n'
p547
sS'93344'
p548
S'http://www.tripadvisor.com/Hotel_Review-g60763-d93344-Reviews-Holiday_Inn_Midtown_57th_St-New_York_City_New_York.html\n'
p549
sS'93345'
p550
S'http://www.tripadvisor.com/Hotel_Review-g60763-d93345-Reviews-Skyline_Hotel-New_York_City_New_York.html\n'
p551
sS'93517'
p552
S'http://www.tripadvisor.com/Hotel_Review-g60763-d93517-Reviews-Paramount_Hotel_Times_Square_New_York-New_York_City_New_York.html\n'
p553
sS'3583686'
p554
S'http://www.tripadvisor.com/Hotel_Review-g60763-d3583686-Reviews-Residence_Inn_New_York_Manhattan_Midtown_East-New_York_City_New_York.html\n'
p555
sS'578305'
p556
S'http://www.tripadvisor.com/Hotel_Review-g60763-d578305-Reviews-Residence_Inn_New_York_Manhattan_Times_Square-New_York_City_New_York.html\n'
p557
sS'2643161'
p558
S'http://www.tripadvisor.com/Hotel_Review-g60763-d2643161-Reviews-The_NoMad_Hotel-New_York_City_New_York.html\n'
p559
sS'1462005'
p560
S'http://www.tripadvisor.com/Hotel_Review-g60763-d1462005-Reviews-W_New_York_Downtown-New_York_City_New_York.html\n'
p561
sS'4446427'
p562
S'http://www.tripadvisor.com/Hotel_Review-g60763-d4446427-Reviews-Hotel_Boutique_At_Grand_Central-New_York_City_New_York.html\n'
p563
sS'80075'
p564
S'http://www.tripadvisor.com/Hotel_Review-g60763-d80075-Reviews-Amsterdam_Court_Hotel-New_York_City_New_York.html\n'
p565
sS'5786212'
p566
S'http://www.tripadvisor.com/Hotel_Review-g60763-d5786212-Reviews-Hilton_Garden_Inn_New_York_Central_Park_South_Midtown_West-New_York_City_New_York.html\n'
p567
sS'2148819'
p568
S'http://www.tripadvisor.com/Hotel_Review-g60763-d2148819-Reviews-Hotel_48LEX-New_York_City_New_York.html\n'
p569
sS'290982'
p570
S'http://www.tripadvisor.com/Hotel_Review-g60763-d290982-Reviews-La_Semana_Hotel-New_York_City_New_York.html\n'
p571
sS'80092'
p572
S'http://www.tripadvisor.com/Hotel_Review-g60763-d80092-Reviews-Inn_New_York_City-New_York_City_New_York.html\n'
p573
sS'80093'
p574
S'http://www.tripadvisor.com/Hotel_Review-g60763-d80093-Reviews-Murray_Hill_Inn-New_York_City_New_York.html\n'
p575
sS'290987'
p576
S'http://www.tripadvisor.com/Hotel_Review-g60763-d290987-Reviews-St_Marks_Hotel-New_York_City_New_York.html\n'
p577
sS'1575440'
p578
S'http://www.tripadvisor.com/Hotel_Review-g60763-d1575440-Reviews-East_73rd_and_York_Ave_Apartment-New_York_City_New_York.html\n'
p579
sS'260396'
p580
S'http://www.tripadvisor.com/Hotel_Review-g60763-d260396-Reviews-The_Amsterdam_Inn-New_York_City_New_York.html\n'
p581
sS'866615'
p582
S'http://www.tripadvisor.com/Hotel_Review-g60763-d866615-Reviews-Hampton_Inn_Manhattan_SoHo-New_York_City_New_York.html\n'
p583
sS'281071'
p584
S'http://www.tripadvisor.com/Hotel_Review-g60763-d281071-Reviews-Mandarin_Oriental_New_York-New_York_City_New_York.html\n'
p585
sS'1155229'
p586
S'http://www.tripadvisor.com/Hotel_Review-g60763-d1155229-Reviews-Royal_Park_Hotel-New_York_City_New_York.html\n'
p587
sS'1733337'
p588
S'http://www.tripadvisor.com/Hotel_Review-g60763-d1733337-Reviews-Sutton_Court_Hotel_Residences-New_York_City_New_York.html\n'
p589
sS'665814'
p590
S'http://www.tripadvisor.com/Hotel_Review-g60763-d665814-Reviews-The_Soho_Loft-New_York_City_New_York.html\n'
p591
sS'113343'
p592
S'http://www.tripadvisor.com/Hotel_Review-g60763-d113343-Reviews-Marrakech_Hotel_on_Broadway-New_York_City_New_York.html\n'
p593
sS'1448670'
p594
S'http://www.tripadvisor.com/Hotel_Review-g60763-d1448670-Reviews-Mayor_Hotel-New_York_City_New_York.html\n'
p595
sS'1858923'
p596
S'http://www.tripadvisor.com/Hotel_Review-g60763-d1858923-Reviews-Doubletree_Hotel_New_York_City_Financial_District-New_York_City_New_York.html\n'
p597
sS'6510520'
p598
S'http://www.tripadvisor.com/Hotel_Review-g60763-d6510520-Reviews-Hilton_Garden_Inn_New_York_Midtown_Park_Ave-New_York_City_New_York.html\n'
p599
sS'122014'
p600
S'http://www.tripadvisor.com/Hotel_Review-g60763-d122014-Reviews-Gild_Hall_A_Thompson_Hotel-New_York_City_New_York.html\n'
p601
sS'122015'
p602
S'http://www.tripadvisor.com/Hotel_Review-g60763-d122015-Reviews-Hotel_Grand_Union-New_York_City_New_York.html\n'
p603
sS'122011'
p604
S'http://www.tripadvisor.com/Hotel_Review-g60763-d122011-Reviews-Hotel_Riverview-New_York_City_New_York.html\n'
p605
sS'1486164'
p606
S'http://www.tripadvisor.com/Hotel_Review-g60763-d1486164-Reviews-Fairfield_Inn_Suites_New_York_Manhattan_Fifth_Avenue-New_York_City_New_York.html\n'
p607
sS'1218792'
p608
S'http://www.tripadvisor.com/Hotel_Review-g60763-d1218792-Reviews-Hilton_Garden_Inn_New_York_West_35th_Street-New_York_City_New_York.html\n'
p609
sS'1572980'
p610
S'http://www.tripadvisor.com/Hotel_Review-g60763-d1572980-Reviews-Crosby_Street_Hotel-New_York_City_New_York.html\n'
p611
sS'112062'
p612
S'http://www.tripadvisor.com/Hotel_Review-g60763-d112062-Reviews-The_Time-New_York_City_New_York.html\n'
p613
sS'112064'
p614
S'http://www.tripadvisor.com/Hotel_Review-g60763-d112064-Reviews-Warwick_New_York_Hotel-New_York_City_New_York.html\n'
p615
sS'112066'
p616
S'http://www.tripadvisor.com/Hotel_Review-g60763-d112066-Reviews-W_New_York-New_York_City_New_York.html\n'
p617
sS'1949647'
p618
S'http://www.tripadvisor.com/Hotel_Review-g60763-d1949647-Reviews-Fairfield_Inn_Suites_New_York_Manhattan_Chelsea-New_York_City_New_York.html\n'
p619
sS'4799063'
p620
S'http://www.tripadvisor.com/Hotel_Review-g60763-d4799063-Reviews-Hyatt_Times_Square_New_York-New_York_City_New_York.html\n'
p621
sS'93421'
p622
S'http://www.tripadvisor.com/Hotel_Review-g60763-d93421-Reviews-Hotel_Carter-New_York_City_New_York.html\n'
p623
sS'6883205'
p624
S'http://www.tripadvisor.com/Hotel_Review-g60763-d6883205-Reviews-1_Hotel_Central_Park-New_York_City_New_York.html\n'
p625
sS'93382'
p626
S'http://www.tripadvisor.com/Hotel_Review-g60763-d93382-Reviews-Washington_Square_Hotel-New_York_City_New_York.html\n'
p627
sS'93383'
p628
S'http://www.tripadvisor.com/Hotel_Review-g60763-d93383-Reviews-6_Columbus_A_SIXTY_Hotel-New_York_City_New_York.html\n'
p629
sS'93380'
p630
S'http://www.tripadvisor.com/Hotel_Review-g60763-d93380-Reviews-The_Aladdin-New_York_City_New_York.html\n'
p631
sS'93545'
p632
S'http://www.tripadvisor.com/Hotel_Review-g60763-d93545-Reviews-The_Manhattan_at_Times_Square_Hotel-New_York_City_New_York.html\n'
p633
sS'75737'
p634
S'http://www.tripadvisor.com/Hotel_Review-g60763-d75737-Reviews-Night_Theater_District-New_York_City_New_York.html\n'
p635
sS'1217245'
p636
S'http://www.tripadvisor.com/Hotel_Review-g60763-d1217245-Reviews-The_Sylvan_Guest_House-New_York_City_New_York.html\n'
p637
sS'99302'
p638
S'http://www.tripadvisor.com/Hotel_Review-g60763-d99302-Reviews-The_Bentley_Hotel-New_York_City_New_York.html\n'
p639
sS'99307'
p640
S'http://www.tripadvisor.com/Hotel_Review-g60763-d99307-Reviews-Wellington_Hotel-New_York_City_New_York.html\n'
p641
sS'3533197'
p642
S'http://www.tripadvisor.com/Hotel_Review-g60763-d3533197-Reviews-Hyatt_Union_Square_New_York-New_York_City_New_York.html\n'
p643
sS'2554351'
p644
S'http://www.tripadvisor.com/Hotel_Review-g60763-d2554351-Reviews-Hyatt_Place_New_York_Midtown_South-New_York_City_New_York.html\n'
p645
sS'249712'
p646
S'http://www.tripadvisor.com/Hotel_Review-g60763-d249712-Reviews-The_Westin_New_York_at_Times_Square-New_York_City_New_York.html\n'
p647
sS'249711'
p648
S'http://www.tripadvisor.com/Hotel_Review-g60763-d249711-Reviews-The_Hotel_at_Times_Square-New_York_City_New_York.html\n'
p649
sS'249710'
p650
S'http://www.tripadvisor.com/Hotel_Review-g60763-d249710-Reviews-Morningside_Inn-New_York_City_New_York.html\n'
p651
sS'4232686'
p652
S'http://www.tripadvisor.com/Hotel_Review-g60763-d4232686-Reviews-Viceroy_New_York-New_York_City_New_York.html\n'
p653
sS'1990870'
p654
S'http://www.tripadvisor.com/Hotel_Review-g60763-d1990870-Reviews-Elk_Hotel-New_York_City_New_York.html\n'
p655
sS'7255276'
p656
S'http://www.tripadvisor.com/Hotel_Review-g60763-d7255276-Reviews-The_Knickerbocker-New_York_City_New_York.html\n'
p657
sS'675616'
p658
S'http://www.tripadvisor.com/Hotel_Review-g60763-d675616-Reviews-The_Plaza-New_York_City_New_York.html\n'
p659
sS'93333'
p660
S'http://www.tripadvisor.com/Hotel_Review-g60763-d93333-Reviews-Wolcott_Hotel-New_York_City_New_York.html\n'
p661
sS'93337'
p662
S'http://www.tripadvisor.com/Hotel_Review-g60763-d93337-Reviews-Kitano_New_York-New_York_City_New_York.html\n'
p663
sS'93335'
p664
S'http://www.tripadvisor.com/Hotel_Review-g60763-d93335-Reviews-The_Kimberly_Hotel-New_York_City_New_York.html\n'
p665
sS'93334'
p666
S'http://www.tripadvisor.com/Hotel_Review-g60763-d93334-Reviews-Excelsior_Hotel-New_York_City_New_York.html\n'
p667
sS'93339'
p668
S'http://www.tripadvisor.com/Hotel_Review-g60763-d93339-Reviews-Hilton_Manhattan_East-New_York_City_New_York.html\n'
p669
sS'93338'
p670
S'http://www.tripadvisor.com/Hotel_Review-g60763-d93338-Reviews-Hotel_Beacon-New_York_City_New_York.html\n'
p671
sS'262330'
p672
S'http://www.tripadvisor.com/Hotel_Review-g60763-d262330-Reviews-Millenium_Hilton-New_York_City_New_York.html\n'
p673
sS'1563892'
p674
S'http://www.tripadvisor.com/Hotel_Review-g60763-d1563892-Reviews-Flatiron_Hotel-New_York_City_New_York.html\n'
p675
sS'3572583'
p676
S'http://www.tripadvisor.com/Hotel_Review-g60763-d3572583-Reviews-Holiday_Inn_Express_New_York_Manhattan_West_Side-New_York_City_New_York.html\n'
p677
sS'256738'
p678
S'http://www.tripadvisor.com/Hotel_Review-g60763-d256738-Reviews-Envoy_Club_Suites-New_York_City_New_York.html\n'
p679
sS'3572587'
p680
S'http://www.tripadvisor.com/Hotel_Review-g60763-d3572587-Reviews-Hampton_Inn_Manhattan_United_Nations-New_York_City_New_York.html\n'
p681
sS'3973287'
p682
S'http://www.tripadvisor.com/Hotel_Review-g60763-d3973287-Reviews-BEST_WESTERN_PREMIER_Herald_Square-New_York_City_New_York.html\n'
p683
sS'290978'
p684
S'http://www.tripadvisor.com/Hotel_Review-g60763-d290978-Reviews-Hotel_St_James-New_York_City_New_York.html\n'
p685
sS'113309'
p686
S'http://www.tripadvisor.com/Hotel_Review-g60763-d113309-Reviews-Fitzpatrick_Manhattan-New_York_City_New_York.html\n'
p687
sS'1913413'
p688
S'http://www.tripadvisor.com/Hotel_Review-g60763-d1913413-Reviews-The_Jewel_Facing_Rockefeller_Center-New_York_City_New_York.html\n'
p689
sS'113300'
p690
S'http://www.tripadvisor.com/Hotel_Review-g60763-d113300-Reviews-Omni_Berkshire_Place-New_York_City_New_York.html\n'
p691
sS'93614'
p692
S'http://www.tripadvisor.com/Hotel_Review-g60763-d93614-Reviews-The_St_Regis_New_York-New_York_City_New_York.html\n'
p693
sS'93610'
p694
S'http://www.tripadvisor.com/Hotel_Review-g60763-d93610-Reviews-Royalton_New_York_Hotel-New_York_City_New_York.html\n'
p695
sS'93612'
p696
S'http://www.tripadvisor.com/Hotel_Review-g60763-d93612-Reviews-Shoreham-New_York_City_New_York.html\n'
p697
sS'674743'
p698
S'http://www.tripadvisor.com/Hotel_Review-g60763-d674743-Reviews-CITY_ROOMS_NYC_Soho-New_York_City_New_York.html\n'
p699
sS'194238'
p700
S'http://www.tripadvisor.com/Hotel_Review-g60763-d194238-Reviews-The_Court_A_St_Giles_Premier_Hotel-New_York_City_New_York.html\n'
p701
sS'93618'
p702
S'http://www.tripadvisor.com/Hotel_Review-g60763-d93618-Reviews-Waldorf_Astoria_New_York-New_York_City_New_York.html\n'
p703
sS'6727310'
p704
S'http://www.tripadvisor.com/Hotel_Review-g60763-d6727310-Reviews-The_Ludlow_New_York_City-New_York_City_New_York.html\n'
p705
sS'99288'
p706
S'http://www.tripadvisor.com/Hotel_Review-g60763-d99288-Reviews-NYLO_New_York_City-New_York_City_New_York.html\n'
p707
sS'6555841'
p708
S'http://www.tripadvisor.com/Hotel_Review-g60763-d6555841-Reviews-The_Leon_Hotel-New_York_City_New_York.html\n'
p709
sS'99281'
p710
S'http://www.tripadvisor.com/Hotel_Review-g60763-d99281-Reviews-The_Lucerne_Hotel-New_York_City_New_York.html\n'
p711
sS'1048678'
p712
S'http://www.tripadvisor.com/Hotel_Review-g60763-d1048678-Reviews-The_Hotel_91-New_York_City_New_York.html\n'
p713
sS'99287'
p714
S'http://www.tripadvisor.com/Hotel_Review-g60763-d99287-Reviews-Graffiti_Hostel-New_York_City_New_York.html\n'
p715
sS'3344640'
p716
S'http://www.tripadvisor.com/Hotel_Review-g60763-d3344640-Reviews-Refinery_Hotel-New_York_City_New_York.html\n'
p717
sS'488793'
p718
S'http://www.tripadvisor.com/Hotel_Review-g60763-d488793-Reviews-Solita_Soho_Hotel-New_York_City_New_York.html\n'
p719
sS'1963673'
p720
S'http://www.tripadvisor.com/Hotel_Review-g60763-d1963673-Reviews-The_Gotham_Hotel-New_York_City_New_York.html\n'
p721
sS'93374'
p722
S'http://www.tripadvisor.com/Hotel_Review-g60763-d93374-Reviews-Off_Soho_Suites-New_York_City_New_York.html\n'
p723
sS'1149402'
p724
S'http://www.tripadvisor.com/Hotel_Review-g60763-d1149402-Reviews-The_Standard_East_Village-New_York_City_New_York.html\n'
p725
sS'217630'
p726
S'http://www.tripadvisor.com/Hotel_Review-g60763-d217630-Reviews-414_Hotel-New_York_City_New_York.html\n'
p727
sS'93507'
p728
S'http://www.tripadvisor.com/Hotel_Review-g60763-d93507-Reviews-New_York_Marriott_Marquis-New_York_City_New_York.html\n'
p729
sS'1371825'
p730
S'http://www.tripadvisor.com/Hotel_Review-g60763-d1371825-Reviews-Smyth_a_Thompson_Hotel-New_York_City_New_York.html\n'
p731
sS'7196011'
p732
S'http://www.tripadvisor.com/Hotel_Review-g60763-d7196011-Reviews-Comfort_Inn_Sunset_Park_Park_Slope-New_York_City_New_York.html\n'
p733
sS'1456560'
p734
S'http://www.tripadvisor.com/Hotel_Review-g60763-d1456560-Reviews-Eventi_a_Kimpton_Hotel-New_York_City_New_York.html\n'
p735
sS'3168954'
p736
S'http://www.tripadvisor.com/Hotel_Review-g60763-d3168954-Reviews-Tribeca_Blu_Hotel-New_York_City_New_York.html\n'
p737
sS'246797'
p738
S'http://www.tripadvisor.com/Hotel_Review-g60763-d246797-Reviews-Park_79_Hotel-New_York_City_New_York.html\n'
p739
sS'1007724'
p740
S'http://www.tripadvisor.com/Hotel_Review-g60763-d1007724-Reviews-Hotel_East_Houston-New_York_City_New_York.html\n'
p741
sS'1415127'
p742
S'http://www.tripadvisor.com/Hotel_Review-g60763-d1415127-Reviews-The_French_Quarters_Guest_Apartments-New_York_City_New_York.html\n'
p743
sS'1646128'
p744
S'http://www.tripadvisor.com/Hotel_Review-g60763-d1646128-Reviews-InterContinental_New_York_Times_Square-New_York_City_New_York.html\n'
p745
sS'1783324'
p746
S'http://www.tripadvisor.com/Hotel_Review-g60763-d1783324-Reviews-Sheraton_Tribeca_New_York_Hotel-New_York_City_New_York.html\n'
p747
sS'93376'
p748
S'http://www.tripadvisor.com/Hotel_Review-g60763-d93376-Reviews-Night_Times_Square-New_York_City_New_York.html\n'
p749
sS'5960548'
p750
S'http://www.tripadvisor.com/Hotel_Review-g60763-d5960548-Reviews-Hilton_Garden_Inn_New_York_Manhattan_Midtown_East-New_York_City_New_York.html\n'
p751
sS'287626'
p752
S'http://www.tripadvisor.com/Hotel_Review-g60763-d287626-Reviews-Gansevoort_Meatpacking_NYC-New_York_City_New_York.html\n'
p753
sS'5040757'
p754
S'http://www.tripadvisor.com/Hotel_Review-g60763-d5040757-Reviews-Homewood_Suites_by_Hilton_New_York_Midtown_Manhattan_Times_Square_South_NY-New_York_Cit.html\n'
p755
sS'93379'
p756
S'http://www.tripadvisor.com/Hotel_Review-g60763-d93379-Reviews-Hotel_17-New_York_City_New_York.html\n'
p757
sS'93575'
p758
S'http://www.tripadvisor.com/Hotel_Review-g60763-d93575-Reviews-The_Franklin-New_York_City_New_York.html\n'
p759
sS'93571'
p760
S'http://www.tripadvisor.com/Hotel_Review-g60763-d93571-Reviews-Carlton_Hotel_Autograph_Collection-New_York_City_New_York.html\n'
p761
sS'112021'
p762
S'http://www.tripadvisor.com/Hotel_Review-g60763-d112021-Reviews-Broadway_at_Times_Square_Hotel-New_York_City_New_York.html\n'
p763
sS'93475'
p764
S'http://www.tripadvisor.com/Hotel_Review-g60763-d93475-Reviews-New_York_Marriott_East_Side-New_York_City_New_York.html\n'
p765
sS'93477'
p766
S'http://www.tripadvisor.com/Hotel_Review-g60763-d93477-Reviews-New_York_Marriott_Downtown-New_York_City_New_York.html\n'
p767
sS'1164645'
p768
S'http://www.tripadvisor.com/Hotel_Review-g60763-d1164645-Reviews-Eurostars_Wall_Street-New_York_City_New_York.html\n'
p769
sS'99333'
p770
S'http://www.tripadvisor.com/Hotel_Review-g60763-d99333-Reviews-Washington_Jefferson_Hotel-New_York_City_New_York.html\n'
p771
sS'99332'
p772
S'http://www.tripadvisor.com/Hotel_Review-g60763-d99332-Reviews-Ameritania_Hotel-New_York_City_New_York.html\n'
p773
sS'1217376'
p774
S'http://www.tripadvisor.com/Hotel_Review-g60763-d1217376-Reviews-The_GEM_Hotel_Hudson_Yards_an_Ascend_Hotel_Collection_Member-New_York_City_New_York.html\n'
p775
sS'2253206'
p776
S'http://www.tripadvisor.com/Hotel_Review-g60763-d2253206-Reviews-TRYP_by_Wyndham_Times_Square_South-New_York_City_New_York.html\n'
p777
sS'1177864'
p778
S'http://www.tripadvisor.com/Hotel_Review-g60763-d1177864-Reviews-The_GEM_Hotel_Chelsea-New_York_City_New_York.html\n'
p779
sS'267182'
p780
S'http://www.tripadvisor.com/Hotel_Review-g60763-d267182-Reviews-Windsor_Hotel-New_York_City_New_York.html\n'
p781
sS'267183'
p782
S'http://www.tripadvisor.com/Hotel_Review-g60763-d267183-Reviews-World_Hotel-New_York_City_New_York.html\n'
p783
sS'208888'
p784
S'http://www.tripadvisor.com/Hotel_Review-g60763-d208888-Reviews-Riff_Chelsea-New_York_City_New_York.html\n'
p785
sS'540545'
p786
S'http://www.tripadvisor.com/Hotel_Review-g60763-d540545-Reviews-Chelsea_Inn_11th_Avenue-New_York_City_New_York.html\n'
p787
sS'1595302'
p788
S'http://www.tripadvisor.com/Hotel_Review-g60763-d1595302-Reviews-Club_Quarters_World_Trade_Center-New_York_City_New_York.html\n'
p789
sS'99371'
p790
S'http://www.tripadvisor.com/Hotel_Review-g60763-d99371-Reviews-Courtyard_New_York_Manhattan_Midtown_East-New_York_City_New_York.html\n'
p791
sS'630409'
p792
S'http://www.tripadvisor.com/Hotel_Review-g60763-d630409-Reviews-The_London_NYC-New_York_City_New_York.html\n'
p793
sS'235238'
p794
S'http://www.tripadvisor.com/Hotel_Review-g60763-d235238-Reviews-W_New_York_Times_Square-New_York_City_New_York.html\n'
p795
sS'2151571'
p796
S'http://www.tripadvisor.com/Hotel_Review-g60763-d2151571-Reviews-Hotel_Americano-New_York_City_New_York.html\n'
p797
sS'514488'
p798
S'http://www.tripadvisor.com/Hotel_Review-g60763-d514488-Reviews-Hotel_on_Rivington-New_York_City_New_York.html\n'
p799
sS'219622'
p800
S'http://www.tripadvisor.com/Hotel_Review-g60763-d219622-Reviews-Chelsea_Hotel-New_York_City_New_York.html\n'
p801
sS'4274398'
p802
S'http://www.tripadvisor.com/Hotel_Review-g60763-d4274398-Reviews-Courtyard_by_Marriott_New_York_Times_Square_West-New_York_City_New_York.html\n'
p803
sS'5039852'
p804
S'http://www.tripadvisor.com/Hotel_Review-g60763-d5039852-Reviews-Courtyard_New_York_Manhattan_Central_Park-New_York_City_New_York.html\n'
p805
sS'8035866'
p806
S'http://www.tripadvisor.com/Hotel_Review-g60763-d8035866-Reviews-Hampton_Inn_Manhattan_Times_Square_Central-New_York_City_New_York.html\n'
p807
sS'620040'
p808
S'http://www.tripadvisor.com/Hotel_Review-g60763-d620040-Reviews-Wingate_by_Wyndham_Manhattan_Midtown-New_York_City_New_York.html\n'
p809
sS'93559'
p810
S'http://www.tripadvisor.com/Hotel_Review-g60763-d93559-Reviews-The_Sherry_Netherland_Hotel-New_York_City_New_York.html\n'
p811
sS'564851'
p812
S'http://www.tripadvisor.com/Hotel_Review-g60763-d564851-Reviews-Courtyard_by_Marriott_New_York_Manhattan_Upper_East_Side-New_York_City_New_York.html\n'
p813
sS'234762'
p814
S'http://www.tripadvisor.com/Hotel_Review-g60763-d234762-Reviews-The_Quin-New_York_City_New_York.html\n'
p815
s.